(iid3_node
node
p0
(dp1
S'feature_label'
p2
S'XI'
p3
sS'right_node'
p4
(iid3_node
node
p5
(dp6
g2
S'XK'
p7
sS'parent'
p8
g0
sg4
(iid3_node
node
p9
(dp10
g2
S'XD'
p11
sg8
g5
sg4
(iid3_node
node
p12
(dp13
S'class_prediction'
p14
I0
sg8
g9
sS'is_pure'
p15
I01
sbsS'left_node'
p16
(iid3_node
node
p17
(dp18
g2
S'XT'
p19
sg8
g9
sg4
(iid3_node
node
p20
(dp21
g2
S'XB'
p22
sg8
g17
sg4
(iid3_node
node
p23
(dp24
g14
I0
sg8
g20
sg15
I01
sbsg16
(iid3_node
node
p25
(dp26
g2
S'XF'
p27
sg8
g20
sg4
(iid3_node
node
p28
(dp29
g2
S'XH'
p30
sg8
g25
sg4
(iid3_node
node
p31
(dp32
g2
S'XU'
p33
sg8
g28
sg4
(iid3_node
node
p34
(dp35
g14
I1
sg8
g31
sg15
I01
sbsg16
(iid3_node
node
p36
(dp37
g2
S'XR'
p38
sg8
g31
sg4
(iid3_node
node
p39
(dp40
g2
S'XQ'
p41
sg8
g36
sg4
(iid3_node
node
p42
(dp43
g14
I0
sg8
g39
sg15
I01
sbsg16
(iid3_node
node
p44
(dp45
g14
I1
sg8
g39
sg15
I01
sbsS'right_data'
p46
(lp47
(lp48
S'0'
p49
aS'1'
p50
ag49
ag50
ag50
ag50
ag50
ag50
ag50
ag50
ag50
ag49
ag50
ag50
ag49
ag50
ag50
ag49
ag50
ag49
ag49
aasg15
I01
sS'left_data'
p51
(lp52
(lp53
g49
ag50
ag49
ag50
ag50
ag49
ag50
ag50
ag50
ag50
ag49
ag50
ag49
ag49
ag49
ag49
ag50
ag50
ag50
ag49
ag50
aa(lp54
g49
ag49
ag49
ag50
ag50
ag49
ag50
ag50
ag50
ag50
ag49
ag50
ag49
ag49
ag49
ag49
ag50
ag50
ag50
ag49
ag50
aa(lp55
g49
ag50
ag49
ag50
ag50
ag49
ag50
ag50
ag49
ag50
ag50
ag50
ag49
ag50
ag49
ag49
ag50
ag49
ag50
ag49
ag50
aasg14
I1
sbsg16
(iid3_node
node
p56
(dp57
g14
I0
sg8
g36
sg15
I01
sbsg46
(lp58
g53
ag54
ag55
ag48
asg15
I01
sg51
(lp59
(lp60
g49
ag49
ag49
ag50
ag50
ag49
ag50
ag50
ag49
ag50
ag50
ag50
ag50
ag49
ag50
ag49
ag49
ag50
ag50
ag49
ag49
aa(lp61
g49
ag49
ag49
ag49
ag50
ag49
ag50
ag50
ag49
ag50
ag49
ag50
ag49
ag50
ag49
ag49
ag49
ag50
ag50
ag49
ag49
aasg14
I1
sbsg46
(lp62
(lp63
g49
ag49
ag49
ag49
ag50
ag49
ag50
ag50
ag49
ag50
ag49
ag49
ag50
ag50
ag50
ag50
ag49
ag49
ag50
ag50
ag50
aa(lp64
g49
ag50
ag49
ag50
ag50
ag50
ag50
ag50
ag50
ag50
ag49
ag50
ag50
ag49
ag50
ag50
ag50
ag49
ag50
ag50
ag50
aasg15
I01
sg51
(lp65
g53
ag54
ag60
ag55
ag48
ag61
asg14
I1
sbsg16
(iid3_node
node
p66
(dp67
g14
I1
sg8
g28
sg15
I01
sbsg46
(lp68
g53
ag54
ag60
ag55
ag63
ag64
ag48
ag61
asg15
I01
sg51
(lp69
(lp70
g49
ag49
ag49
ag50
ag50
ag49
ag49
ag50
ag49
ag50
ag50
ag49
ag49
ag50
ag49
ag49
ag50
ag50
ag50
ag50
ag50
aa(lp71
g49
ag50
ag49
ag50
ag50
ag49
ag49
ag50
ag49
ag50
ag50
ag50
ag50
ag49
ag49
ag50
ag50
ag49
ag50
ag50
ag50
aa(lp72
g49
ag50
ag49
ag49
ag50
ag49
ag49
ag50
ag50
ag50
ag50
ag49
ag49
ag50
ag49
ag50
ag50
ag49
ag50
ag49
ag50
aa(lp73
g49
ag50
ag49
ag50
ag50
ag50
ag49
ag50
ag50
ag50
ag50
ag49
ag50
ag50
ag49
ag49
ag50
ag50
ag50
ag49
ag50
aa(lp74
g49
ag50
ag49
ag50
ag50
ag50
ag49
ag50
ag49
ag50
ag50
ag50
ag50
ag49
ag50
ag49
ag50
ag50
ag50
ag49
ag50
aa(lp75
g49
ag50
ag49
ag50
ag50
ag49
ag49
ag50
ag49
ag50
ag49
ag50
ag50
ag49
ag50
ag49
ag50
ag50
ag50
ag50
ag50
aa(lp76
g49
ag50
ag49
ag50
ag50
ag49
ag49
ag50
ag50
ag50
ag49
ag50
ag49
ag49
ag50
ag50
ag50
ag49
ag50
ag50
ag50
aasg14
I1
sbsg16
(iid3_node
node
p77
(dp78
g2
S'XM'
p79
sg8
g25
sg4
(iid3_node
node
p80
(dp81
g2
S'XE'
p82
sg8
g77
sg4
(iid3_node
node
p83
(dp84
g2
g38
sg8
g80
sg4
(iid3_node
node
p85
(dp86
g14
I0
sg8
g83
sg15
I01
sbsg16
(iid3_node
node
p87
(dp88
g14
I1
sg8
g83
sg15
I01
sbsg46
(lp89
(lp90
g49
ag49
ag49
ag50
ag49
ag50
ag50
ag50
ag49
ag50
ag50
ag50
ag49
ag50
ag50
ag49
ag50
ag50
ag50
ag50
ag49
aa(lp91
g49
ag49
ag49
ag50
ag49
ag49
ag49
ag50
ag49
ag50
ag50
ag50
ag49
ag49
ag50
ag49
ag50
ag50
ag50
ag50
ag49
aasg15
I00
sg51
(lp92
(lp93
g49
ag50
ag49
ag50
ag49
ag50
ag50
ag50
ag49
ag50
ag49
ag50
ag50
ag49
ag50
ag50
ag49
ag50
ag50
ag50
ag50
aa(lp94
g49
ag50
ag49
ag50
ag49
ag50
ag49
ag50
ag49
ag50
ag50
ag50
ag49
ag50
ag50
ag49
ag49
ag50
ag50
ag50
ag50
aasg14
I1
sbsg16
(iid3_node
node
p95
(dp96
g14
I0
sg8
g80
sg15
I01
sbsg46
(lp97
g90
ag93
ag94
ag91
asg15
I00
sg51
(lp98
(lp99
g49
ag49
ag49
ag49
ag49
ag50
ag50
ag50
ag49
ag50
ag50
ag50
ag50
ag50
ag50
ag49
ag49
ag49
ag50
ag50
ag49
aa(lp100
g49
ag50
ag49
ag49
ag49
ag49
ag50
ag50
ag49
ag50
ag50
ag50
ag50
ag49
ag49
ag49
ag49
ag49
ag50
ag50
ag49
aa(lp101
g49
ag49
ag49
ag49
ag49
ag50
ag49
ag50
ag50
ag50
ag49
ag50
ag50
ag50
ag49
ag50
ag50
ag49
ag50
ag49
ag49
aa(lp102
g49
ag50
ag49
ag49
ag49
ag50
ag50
ag50
ag49
ag50
ag50
ag50
ag50
ag50
ag49
ag49
ag49
ag50
ag50
ag49
ag49
aasg14
I0
sbsg16
(iid3_node
node
p103
(dp104
g14
I1
sg8
g77
sg15
I01
sbsg46
(lp105
g90
ag93
ag99
ag100
ag94
ag101
ag102
ag91
asg15
I00
sg51
(lp106
(lp107
g49
ag49
ag49
ag49
ag49
ag50
ag50
ag50
ag49
ag50
ag49
ag49
ag50
ag50
ag50
ag49
ag49
ag50
ag50
ag49
ag50
aa(lp108
g49
ag50
ag49
ag50
ag49
ag50
ag50
ag50
ag50
ag50
ag49
ag49
ag49
ag49
ag49
ag49
ag49
ag50
ag50
ag49
ag50
aa(lp109
g49
ag49
ag49
ag49
ag49
ag50
ag49
ag50
ag49
ag50
ag50
ag49
ag50
ag49
ag50
ag50
ag49
ag50
ag50
ag49
ag50
aasg14
I0
sbsg46
(lp110
g53
ag70
ag71
ag54
ag60
ag55
ag63
ag72
ag64
ag73
ag74
ag48
ag75
ag61
ag76
asg15
I01
sg51
(lp111
g90
ag93
ag99
ag100
ag107
ag94
ag108
ag101
ag109
ag102
ag91
asg14
I1
sbsg46
(lp112
(lp113
g50
ag49
ag49
ag50
ag50
ag50
ag50
ag50
ag50
ag50
ag50
ag50
ag49
ag50
ag50
ag50
ag49
ag50
ag50
ag49
ag49
aa(lp114
g50
ag49
ag49
ag49
ag50
ag50
ag50
ag50
ag50
ag50
ag50
ag50
ag50
ag50
ag49
ag49
ag49
ag50
ag50
ag49
ag49
aa(lp115
g50
ag50
ag49
ag49
ag49
ag50
ag50
ag50
ag50
ag50
ag50
ag50
ag50
ag50
ag50
ag49
ag49
ag50
ag50
ag50
ag49
aa(lp116
g50
ag50
ag49
ag49
ag49
ag50
ag50
ag50
ag50
ag50
ag50
ag50
ag49
ag50
ag50
ag49
ag49
ag49
ag50
ag50
ag49
aa(lp117
g50
ag50
ag49
ag50
ag49
ag49
ag49
ag50
ag50
ag50
ag50
ag49
ag50
ag49
ag50
ag50
ag49
ag50
ag50
ag49
ag49
aa(lp118
g50
ag50
ag49
ag49
ag49
ag50
ag49
ag50
ag50
ag50
ag49
ag50
ag50
ag49
ag50
ag49
ag49
ag50
ag50
ag50
ag49
aa(lp119
g50
ag49
ag49
ag50
ag49
ag49
ag49
ag50
ag49
ag50
ag50
ag50
ag49
ag49
ag49
ag49
ag49
ag49
ag50
ag49
ag49
aa(lp120
g50
ag50
ag49
ag49
ag49
ag50
ag49
ag50
ag49
ag50
ag49
ag50
ag49
ag49
ag50
ag50
ag50
ag50
ag50
ag49
ag49
aa(lp121
g50
ag50
ag49
ag49
ag49
ag49
ag49
ag50
ag49
ag50
ag49
ag50
ag50
ag50
ag49
ag49
ag49
ag49
ag50
ag50
ag49
aa(lp122
g50
ag50
ag49
ag49
ag50
ag50
ag50
ag50
ag50
ag50
ag50
ag50
ag49
ag49
ag49
ag49
ag49
ag49
ag50
ag50
ag49
aa(lp123
g50
ag49
ag49
ag49
ag50
ag50
ag49
ag50
ag49
ag50
ag49
ag50
ag50
ag50
ag49
ag49
ag49
ag49
ag50
ag50
ag49
aa(lp124
g50
ag50
ag49
ag49
ag50
ag49
ag49
ag50
ag50
ag50
ag50
ag50
ag49
ag49
ag50
ag50
ag50
ag49
ag50
ag50
ag49
aa(lp125
g50
ag50
ag49
ag49
ag49
ag50
ag50
ag50
ag50
ag50
ag49
ag49
ag50
ag49
ag50
ag50
ag49
ag49
ag50
ag49
ag49
aa(lp126
g50
ag49
ag49
ag49
ag50
ag49
ag50
ag50
ag49
ag50
ag50
ag50
ag49
ag50
ag49
ag50
ag50
ag50
ag50
ag49
ag49
aa(lp127
g50
ag49
ag49
ag49
ag49
ag50
ag50
ag50
ag50
ag50
ag49
ag49
ag49
ag50
ag50
ag50
ag49
ag49
ag50
ag49
ag49
aasg15
I00
sg51
(lp128
g53
ag90
ag93
ag70
ag99
ag100
ag107
ag71
ag94
ag54
ag60
ag108
ag55
ag63
ag72
ag64
ag73
ag101
ag74
ag109
ag48
ag75
ag102
ag61
ag91
ag76
asg14
I0
sbsg16
(iid3_node
node
p129
(dp130
g2
g27
sg8
g17
sg4
(iid3_node
node
p131
(dp132
g2
S'XO'
p133
sg8
g129
sg4
(iid3_node
node
p134
(dp135
g2
g30
sg8
g131
sg4
(iid3_node
node
p136
(dp137
g2
S'XN'
p138
sg8
g134
sg4
(iid3_node
node
p139
(dp140
g14
I1
sg8
g136
sg15
I01
sbsg16
(iid3_node
node
p141
(dp142
g2
g79
sg8
g136
sg4
(iid3_node
node
p143
(dp144
g14
I1
sg8
g141
sg15
I01
sbsg16
(iid3_node
node
p145
(dp146
g2
S'XS'
p147
sg8
g141
sg4
(iid3_node
node
p148
(dp149
g14
I0
sg8
g145
sg15
I01
sbsg16
(iid3_node
node
p150
(dp151
g14
I1
sg8
g145
sg15
I01
sbsg46
(lp152
(lp153
g49
ag49
ag49
ag50
ag50
ag49
ag50
ag50
ag50
ag50
ag50
ag49
ag49
ag50
ag50
ag49
ag49
ag50
ag49
ag49
ag49
aasg15
I01
sg51
(lp154
(lp155
g49
ag49
ag49
ag50
ag50
ag50
ag50
ag50
ag50
ag50
ag49
ag49
ag49
ag50
ag49
ag50
ag49
ag49
ag49
ag49
ag50
aasg14
I1
sbsg46
(lp156
(lp157
g49
ag50
ag49
ag49
ag50
ag49
ag50
ag50
ag49
ag50
ag50
ag50
ag49
ag50
ag50
ag49
ag49
ag50
ag49
ag49
ag50
aa(lp158
g50
ag50
ag49
ag49
ag50
ag50
ag50
ag50
ag50
ag50
ag50
ag50
ag49
ag50
ag50
ag49
ag50
ag50
ag49
ag49
ag50
aa(lp159
g50
ag50
ag49
ag50
ag50
ag49
ag50
ag50
ag49
ag50
ag49
ag50
ag49
ag50
ag49
ag49
ag50
ag50
ag49
ag50
ag50
aasg15
I01
sg51
(lp160
g155
ag153
asg14
I1
sbsg46
(lp161
(lp162
g49
ag50
ag49
ag50
ag50
ag49
ag50
ag50
ag50
ag50
ag49
ag49
ag50
ag50
ag50
ag50
ag49
ag49
ag49
ag50
ag50
aa(lp163
g49
ag49
ag49
ag49
ag50
ag49
ag50
ag50
ag49
ag50
ag50
ag50
ag50
ag50
ag50
ag49
ag50
ag49
ag49
ag49
ag50
aa(lp164
g49
ag49
ag49
ag49
ag50
ag50
ag50
ag50
ag50
ag50
ag50
ag49
ag50
ag50
ag50
ag50
ag49
ag50
ag49
ag50
ag50
aa(lp165
g49
ag49
ag49
ag49
ag50
ag50
ag50
ag50
ag49
ag50
ag50
ag49
ag50
ag50
ag49
ag50
ag49
ag50
ag49
ag49
ag50
aa(lp166
g49
ag49
ag49
ag50
ag50
ag49
ag50
ag50
ag50
ag50
ag49
ag50
ag50
ag50
ag49
ag49
ag50
ag50
ag49
ag49
ag50
aa(lp167
g50
ag50
ag49
ag49
ag50
ag49
ag50
ag50
ag50
ag50
ag49
ag50
ag50
ag50
ag50
ag49
ag50
ag49
ag49
ag49
ag50
aasg15
I01
sg51
(lp168
g157
ag155
ag153
ag158
ag159
asg14
I1
sbsg16
(iid3_node
node
p169
(dp170
g2
S'XL'
p171
sg8
g134
sg4
(iid3_node
node
p172
(dp173
g14
I1
sg8
g169
sg15
I01
sbsg16
(iid3_node
node
p174
(dp175
g2
g147
sg8
g169
sg4
(iid3_node
node
p176
(dp177
g2
g33
sg8
g174
sg4
(iid3_node
node
p178
(dp179
g14
I1
sg8
g176
sg15
I01
sbsg16
(iid3_node
node
p180
(dp181
g14
I0
sg8
g176
sg15
I01
sbsg46
(lp182
(lp183
g49
ag50
ag49
ag50
ag50
ag49
ag49
ag50
ag49
ag50
ag49
ag50
ag50
ag50
ag49
ag49
ag49
ag50
ag49
ag50
ag50
aasg15
I00
sg51
(lp184
(lp185
g49
ag50
ag49
ag50
ag50
ag50
ag49
ag50
ag50
ag50
ag49
ag49
ag50
ag50
ag50
ag50
ag50
ag50
ag49
ag49
ag49
aasg14
I1
sbsg16
(iid3_node
node
p186
(dp187
g14
I0
sg8
g174
sg15
I01
sbsg46
(lp188
g183
ag185
asg15
I01
sg51
(lp189
(lp190
g50
ag50
ag49
ag49
ag50
ag49
ag49
ag50
ag49
ag50
ag49
ag50
ag49
ag50
ag49
ag50
ag49
ag49
ag49
ag50
ag49
aa(lp191
g49
ag49
ag49
ag49
ag50
ag50
ag49
ag50
ag50
ag50
ag49
ag50
ag50
ag50
ag49
ag49
ag50
ag49
ag49
ag50
ag49
aasg14
I0
sbsg46
(lp192
(lp193
g49
ag49
ag49
ag49
ag50
ag49
ag49
ag50
ag49
ag50
ag50
ag49
ag50
ag50
ag49
ag50
ag50
ag49
ag49
ag50
ag50
aa(lp194
g49
ag50
ag49
ag49
ag50
ag49
ag49
ag50
ag49
ag50
ag50
ag50
ag49
ag50
ag50
ag49
ag50
ag49
ag49
ag49
ag50
aa(lp195
g50
ag50
ag49
ag49
ag50
ag50
ag49
ag50
ag49
ag50
ag50
ag50
ag49
ag50
ag49
ag49
ag50
ag49
ag49
ag49
ag50
aa(lp196
g49
ag50
ag49
ag50
ag50
ag50
ag49
ag50
ag49
ag50
ag50
ag50
ag50
ag50
ag50
ag49
ag50
ag49
ag49
ag50
ag50
aasg15
I01
sg51
(lp197
g183
ag190
ag185
ag191
asg14
I1
sbsg46
(lp198
g157
ag155
ag153
ag162
ag158
ag163
ag164
ag165
ag159
ag166
ag167
asg15
I01
sg51
(lp199
g193
ag194
ag183
ag190
ag195
ag185
ag196
ag191
asg14
I1
sbsg16
(iid3_node
node
p200
(dp201
g14
I1
sg8
g131
sg15
I01
sbsg46
(lp202
g193
ag157
ag155
ag153
ag162
ag194
ag158
ag183
ag163
ag164
ag190
ag195
ag165
ag159
ag185
ag196
ag166
ag191
ag167
asg15
I01
sg51
(lp203
(lp204
g49
ag49
ag49
ag50
ag50
ag49
ag49
ag50
ag50
ag50
ag49
ag50
ag50
ag49
ag49
ag49
ag50
ag49
ag49
ag50
ag50
aa(lp205
g49
ag50
ag49
ag50
ag50
ag50
ag49
ag50
ag49
ag50
ag50
ag50
ag50
ag49
ag50
ag50
ag50
ag49
ag49
ag50
ag50
aa(lp206
g49
ag49
ag49
ag49
ag50
ag50
ag50
ag50
ag50
ag50
ag50
ag50
ag50
ag49
ag49
ag49
ag49
ag49
ag49
ag49
ag50
aa(lp207
g49
ag49
ag49
ag50
ag50
ag49
ag50
ag50
ag50
ag50
ag50
ag50
ag49
ag49
ag49
ag50
ag50
ag49
ag49
ag50
ag50
aa(lp208
g49
ag50
ag49
ag50
ag50
ag49
ag50
ag50
ag49
ag50
ag50
ag50
ag50
ag49
ag49
ag49
ag50
ag50
ag49
ag49
ag50
aa(lp209
g49
ag50
ag49
ag50
ag50
ag50
ag50
ag50
ag50
ag50
ag50
ag50
ag49
ag49
ag49
ag49
ag50
ag50
ag49
ag50
ag50
aa(lp210
g49
ag50
ag49
ag50
ag50
ag50
ag49
ag50
ag50
ag50
ag49
ag50
ag49
ag49
ag50
ag50
ag49
ag49
ag49
ag49
ag50
aa(lp211
g49
ag50
ag49
ag50
ag50
ag50
ag49
ag50
ag49
ag50
ag49
ag50
ag50
ag49
ag49
ag50
ag49
ag50
ag49
ag50
ag50
aa(lp212
g49
ag49
ag49
ag49
ag50
ag49
ag50
ag50
ag49
ag50
ag49
ag50
ag50
ag49
ag50
ag50
ag50
ag49
ag49
ag50
ag50
aa(lp213
g49
ag49
ag49
ag49
ag50
ag49
ag50
ag50
ag50
ag50
ag50
ag50
ag50
ag49
ag50
ag49
ag50
ag49
ag49
ag49
ag50
aa(lp214
g49
ag49
ag49
ag49
ag50
ag50
ag49
ag50
ag50
ag50
ag50
ag50
ag50
ag49
ag49
ag49
ag49
ag50
ag49
ag49
ag50
aa(lp215
g49
ag49
ag49
ag50
ag50
ag50
ag49
ag50
ag50
ag50
ag50
ag50
ag49
ag49
ag50
ag50
ag49
ag49
ag49
ag50
ag50
aasg14
I1
sbsg16
(iid3_node
node
p216
(dp217
g2
g22
sg8
g129
sg4
(iid3_node
node
p218
(dp219
g2
g133
sg8
g216
sg4
(iid3_node
node
p220
(dp221
g14
I1
sg8
g218
sg15
I01
sbsg16
(iid3_node
node
p222
(dp223
g14
I0
sg8
g218
sg15
I01
sbsg46
(lp224
(lp225
g50
ag49
ag49
ag50
ag49
ag49
ag50
ag50
ag50
ag50
ag50
ag50
ag50
ag50
ag50
ag49
ag50
ag50
ag49
ag50
ag50
aa(lp226
g50
ag49
ag49
ag50
ag49
ag49
ag50
ag50
ag49
ag50
ag49
ag50
ag50
ag50
ag49
ag49
ag49
ag50
ag49
ag49
ag50
aa(lp227
g50
ag49
ag49
ag50
ag49
ag50
ag49
ag50
ag50
ag50
ag50
ag49
ag49
ag50
ag50
ag49
ag49
ag50
ag49
ag50
ag50
aa(lp228
g50
ag49
ag49
ag50
ag49
ag49
ag50
ag50
ag50
ag50
ag49
ag49
ag49
ag50
ag50
ag50
ag49
ag49
ag49
ag50
ag50
aa(lp229
g50
ag49
ag49
ag49
ag49
ag49
ag49
ag50
ag50
ag50
ag50
ag49
ag50
ag50
ag50
ag49
ag50
ag49
ag49
ag49
ag50
aa(lp230
g50
ag50
ag49
ag49
ag49
ag49
ag49
ag50
ag49
ag50
ag49
ag50
ag50
ag50
ag50
ag49
ag50
ag49
ag49
ag50
ag50
aa(lp231
g50
ag50
ag49
ag49
ag49
ag50
ag50
ag50
ag50
ag50
ag49
ag49
ag50
ag50
ag50
ag50
ag50
ag50
ag49
ag50
ag50
aa(lp232
g50
ag49
ag49
ag50
ag49
ag49
ag50
ag50
ag50
ag50
ag50
ag49
ag50
ag50
ag50
ag49
ag50
ag50
ag49
ag50
ag50
aa(lp233
g50
ag49
ag49
ag49
ag49
ag49
ag49
ag50
ag49
ag50
ag49
ag50
ag50
ag50
ag49
ag49
ag50
ag49
ag49
ag50
ag50
aasg15
I00
sg51
(lp234
(lp235
g50
ag49
ag49
ag49
ag49
ag50
ag49
ag50
ag49
ag50
ag49
ag50
ag50
ag49
ag50
ag49
ag50
ag50
ag49
ag49
ag49
aasg14
I1
sbsg16
(iid3_node
node
p236
(dp237
g2
g147
sg8
g216
sg4
(iid3_node
node
p238
(dp239
g2
g33
sg8
g236
sg4
(iid3_node
node
p240
(dp241
g2
g133
sg8
g238
sg4
(iid3_node
node
p242
(dp243
g14
I0
sg8
g240
sg15
I01
sbsg16
(iid3_node
node
p244
(dp245
g14
I1
sg8
g240
sg15
I01
sbsg46
(lp246
(lp247
g49
ag50
ag49
ag50
ag49
ag49
ag50
ag50
ag50
ag50
ag50
ag49
ag50
ag50
ag49
ag49
ag50
ag50
ag49
ag50
ag49
aa(lp248
g49
ag50
ag49
ag50
ag49
ag50
ag50
ag50
ag49
ag50
ag50
ag50
ag50
ag50
ag50
ag50
ag50
ag50
ag49
ag50
ag49
aasg15
I00
sg51
(lp249
(lp250
g49
ag50
ag49
ag50
ag49
ag50
ag50
ag50
ag49
ag50
ag50
ag50
ag50
ag49
ag50
ag50
ag50
ag50
ag49
ag50
ag50
aasg14
I0
sbsg16
(iid3_node
node
p251
(dp252
g14
I1
sg8
g238
sg15
I01
sbsg46
(lp253
g250
ag247
ag248
asg15
I01
sg51
(lp254
(lp255
g49
ag50
ag49
ag50
ag49
ag50
ag50
ag50
ag50
ag50
ag50
ag49
ag49
ag49
ag50
ag50
ag50
ag50
ag49
ag49
ag50
aa(lp256
g49
ag50
ag49
ag50
ag49
ag50
ag50
ag50
ag49
ag50
ag49
ag50
ag50
ag50
ag49
ag49
ag50
ag50
ag49
ag49
ag50
aasg14
I1
sbsg16
(iid3_node
node
p257
(dp258
g14
I0
sg8
g236
sg15
I01
sbsg46
(lp259
g250
ag255
ag247
ag248
ag256
asg15
I00
sg51
(lp260
(lp261
g49
ag50
ag49
ag49
ag49
ag50
ag50
ag50
ag50
ag50
ag49
ag50
ag49
ag50
ag50
ag49
ag49
ag49
ag49
ag49
ag49
aa(lp262
g49
ag49
ag49
ag49
ag49
ag50
ag49
ag50
ag50
ag50
ag49
ag49
ag49
ag49
ag50
ag50
ag49
ag49
ag49
ag49
ag49
aa(lp263
g49
ag50
ag49
ag50
ag49
ag49
ag49
ag50
ag49
ag50
ag49
ag50
ag50
ag49
ag50
ag49
ag49
ag49
ag49
ag49
ag49
aasg14
I0
sbsg46
(lp264
g225
ag235
ag226
ag227
ag228
ag229
ag230
ag231
ag232
ag233
asg15
I00
sg51
(lp265
g261
ag250
ag262
ag255
ag247
ag248
ag263
ag256
asg14
I1
sbsg46
(lp266
g193
ag157
ag204
ag205
ag155
ag206
ag153
ag207
ag208
ag162
ag194
ag158
ag183
ag209
ag163
ag164
ag210
ag190
ag211
ag195
ag165
ag212
ag159
ag185
ag213
ag196
ag166
ag214
ag191
ag167
ag215
asg15
I00
sg51
(lp267
g225
ag235
ag261
ag226
ag250
ag262
ag227
ag255
ag228
ag247
ag229
ag248
ag230
ag231
ag232
ag263
ag256
ag233
asg14
I1
sbsg46
(lp268
g113
ag53
ag90
ag114
ag115
ag93
ag116
ag117
ag70
ag99
ag100
ag107
ag71
ag94
ag54
ag60
ag118
ag108
ag55
ag63
ag119
ag72
ag64
ag120
ag121
ag73
ag122
ag101
ag123
ag124
ag74
ag109
ag125
ag48
ag75
ag102
ag126
ag61
ag91
ag127
ag76
asg15
I00
sg51
(lp269
g225
ag193
ag157
ag204
ag205
ag155
ag235
ag261
ag226
ag250
ag262
ag206
ag153
ag207
ag227
ag255
ag228
ag208
ag162
ag247
ag194
ag229
ag158
ag183
ag209
ag163
ag164
ag210
ag248
ag190
ag211
ag230
ag195
ag231
ag165
ag212
ag159
ag185
ag232
ag263
ag256
ag213
ag196
ag233
ag166
ag214
ag191
ag167
ag215
asg14
I1
sbsg46
(lp270
(lp271
g50
ag50
ag50
ag50
ag49
ag49
ag50
ag50
ag49
ag50
ag49
ag50
ag49
ag50
ag49
ag49
ag50
ag49
ag49
ag50
ag49
aa(lp272
g49
ag49
ag50
ag49
ag50
ag50
ag49
ag50
ag49
ag50
ag49
ag49
ag50
ag49
ag50
ag49
ag49
ag50
ag49
ag50
ag49
aa(lp273
g50
ag50
ag50
ag50
ag50
ag50
ag50
ag50
ag49
ag50
ag49
ag49
ag50
ag50
ag50
ag50
ag49
ag50
ag50
ag50
ag49
aa(lp274
g50
ag49
ag50
ag50
ag49
ag49
ag49
ag50
ag49
ag50
ag50
ag49
ag49
ag50
ag49
ag50
ag50
ag49
ag49
ag50
ag49
aa(lp275
g49
ag50
ag50
ag49
ag49
ag50
ag49
ag50
ag50
ag50
ag49
ag50
ag49
ag49
ag49
ag49
ag49
ag50
ag49
ag49
ag49
aa(lp276
g50
ag49
ag50
ag49
ag50
ag50
ag50
ag50
ag49
ag50
ag49
ag49
ag50
ag50
ag49
ag50
ag50
ag49
ag49
ag49
ag49
aa(lp277
g50
ag49
ag50
ag49
ag50
ag50
ag49
ag50
ag49
ag50
ag49
ag49
ag49
ag49
ag50
ag49
ag50
ag50
ag50
ag50
ag49
aa(lp278
g50
ag50
ag50
ag49
ag50
ag50
ag50
ag50
ag49
ag50
ag50
ag50
ag50
ag49
ag50
ag50
ag49
ag50
ag49
ag49
ag49
aa(lp279
g50
ag49
ag50
ag50
ag49
ag50
ag49
ag50
ag49
ag50
ag49
ag49
ag50
ag50
ag50
ag49
ag49
ag50
ag50
ag49
ag49
aa(lp280
g50
ag50
ag50
ag49
ag49
ag49
ag50
ag50
ag49
ag50
ag49
ag50
ag49
ag49
ag49
ag50
ag50
ag49
ag50
ag49
ag49
aa(lp281
g50
ag50
ag50
ag50
ag49
ag49
ag49
ag50
ag50
ag50
ag49
ag50
ag49
ag50
ag50
ag49
ag49
ag49
ag50
ag50
ag49
aa(lp282
g49
ag50
ag50
ag49
ag49
ag49
ag49
ag50
ag50
ag50
ag49
ag50
ag50
ag50
ag49
ag50
ag50
ag49
ag49
ag49
ag49
aa(lp283
g50
ag50
ag50
ag49
ag50
ag50
ag49
ag50
ag50
ag50
ag49
ag50
ag50
ag49
ag49
ag50
ag49
ag50
ag50
ag49
ag49
aa(lp284
g50
ag50
ag50
ag49
ag50
ag49
ag49
ag50
ag49
ag50
ag49
ag49
ag49
ag50
ag49
ag49
ag50
ag49
ag50
ag50
ag49
aa(lp285
g49
ag50
ag50
ag50
ag50
ag50
ag50
ag50
ag49
ag50
ag49
ag50
ag49
ag49
ag50
ag50
ag49
ag49
ag49
ag49
ag49
aa(lp286
g50
ag50
ag50
ag49
ag49
ag50
ag50
ag50
ag49
ag50
ag49
ag50
ag50
ag49
ag49
ag49
ag49
ag50
ag49
ag49
ag49
aa(lp287
g49
ag50
ag50
ag49
ag49
ag49
ag50
ag50
ag49
ag50
ag50
ag50
ag50
ag50
ag49
ag49
ag49
ag50
ag50
ag49
ag49
aa(lp288
g50
ag50
ag50
ag49
ag49
ag49
ag50
ag50
ag49
ag50
ag49
ag49
ag49
ag50
ag49
ag50
ag49
ag50
ag49
ag49
ag49
aa(lp289
g50
ag50
ag50
ag49
ag50
ag50
ag49
ag50
ag49
ag50
ag50
ag49
ag50
ag49
ag49
ag49
ag50
ag49
ag50
ag49
ag49
aa(lp290
g49
ag49
ag50
ag50
ag50
ag49
ag49
ag50
ag50
ag50
ag49
ag49
ag50
ag49
ag49
ag50
ag50
ag50
ag50
ag50
ag49
aa(lp291
g49
ag50
ag50
ag50
ag50
ag50
ag49
ag50
ag50
ag50
ag50
ag50
ag49
ag50
ag50
ag50
ag50
ag50
ag50
ag49
ag49
aa(lp292
g49
ag50
ag50
ag50
ag50
ag49
ag50
ag50
ag49
ag50
ag49
ag49
ag49
ag49
ag49
ag49
ag49
ag49
ag50
ag50
ag49
aa(lp293
g49
ag49
ag50
ag49
ag50
ag50
ag49
ag50
ag50
ag50
ag50
ag49
ag49
ag50
ag49
ag49
ag50
ag49
ag50
ag50
ag49
aa(lp294
g50
ag50
ag50
ag49
ag49
ag49
ag50
ag50
ag49
ag50
ag49
ag50
ag49
ag49
ag50
ag49
ag50
ag49
ag49
ag49
ag49
aa(lp295
g50
ag50
ag50
ag49
ag50
ag50
ag50
ag50
ag50
ag50
ag50
ag49
ag49
ag49
ag50
ag50
ag50
ag50
ag50
ag49
ag49
aa(lp296
g49
ag49
ag50
ag49
ag49
ag49
ag49
ag50
ag50
ag50
ag50
ag49
ag49
ag50
ag50
ag50
ag50
ag49
ag49
ag49
ag49
aa(lp297
g49
ag49
ag50
ag49
ag49
ag50
ag50
ag50
ag49
ag50
ag50
ag50
ag49
ag49
ag50
ag50
ag50
ag49
ag49
ag50
ag49
aasg15
I00
sg51
(lp298
g225
ag113
ag53
ag193
ag90
ag157
ag204
ag114
ag115
ag93
ag205
ag116
ag155
ag117
ag235
ag70
ag261
ag226
ag250
ag99
ag262
ag206
ag153
ag100
ag207
ag227
ag255
ag107
ag228
ag71
ag94
ag54
ag208
ag60
ag162
ag247
ag194
ag118
ag108
ag55
ag229
ag158
ag183
ag63
ag119
ag72
ag209
ag163
ag164
ag210
ag64
ag120
ag121
ag73
ag122
ag248
ag101
ag190
ag123
ag211
ag230
ag195
ag231
ag165
ag212
ag124
ag74
ag159
ag185
ag109
ag125
ag232
ag263
ag256
ag48
ag75
ag102
ag126
ag213
ag61
ag196
ag91
ag233
ag127
ag166
ag214
ag191
ag167
ag76
ag215
asg14
I0
sbsg16
(iid3_node
node
p299
(dp300
g2
S'XC'
p301
sg8
g5
sg4
(iid3_node
node
p302
(dp303
g2
g11
sg8
g299
sg4
(iid3_node
node
p304
(dp305
g2
g27
sg8
g302
sg4
(iid3_node
node
p306
(dp307
g2
g147
sg8
g304
sg4
(iid3_node
node
p308
(dp309
g14
I0
sg8
g306
sg15
I01
sbsg16
(iid3_node
node
p310
(dp311
g2
g41
sg8
g306
sg4
(iid3_node
node
p312
(dp313
g14
I0
sg8
g310
sg15
I01
sbsg16
(iid3_node
node
p314
(dp315
g14
I1
sg8
g310
sg15
I01
sbsg46
(lp316
(lp317
g49
ag50
ag50
ag50
ag50
ag49
ag50
ag50
ag50
ag49
ag50
ag50
ag50
ag49
ag50
ag50
ag49
ag49
ag50
ag50
ag49
aasg15
I00
sg51
(lp318
(lp319
g49
ag50
ag50
ag50
ag50
ag50
ag50
ag50
ag50
ag49
ag49
ag49
ag50
ag50
ag50
ag49
ag49
ag49
ag49
ag50
ag50
aa(lp320
g50
ag50
ag50
ag49
ag50
ag50
ag50
ag50
ag49
ag49
ag49
ag50
ag50
ag50
ag50
ag49
ag50
ag49
ag50
ag49
ag50
aa(lp321
g49
ag50
ag50
ag50
ag50
ag50
ag49
ag50
ag50
ag49
ag50
ag49
ag49
ag50
ag50
ag49
ag49
ag49
ag50
ag50
ag50
aa(lp322
g50
ag50
ag50
ag49
ag50
ag50
ag50
ag50
ag49
ag49
ag49
ag50
ag50
ag50
ag50
ag49
ag50
ag49
ag50
ag50
ag50
aa(lp323
g49
ag50
ag50
ag50
ag50
ag49
ag50
ag50
ag49
ag49
ag49
ag50
ag50
ag50
ag50
ag49
ag49
ag49
ag49
ag49
ag50
aasg14
I1
sbsg46
(lp324
(lp325
g49
ag50
ag50
ag49
ag50
ag50
ag49
ag50
ag50
ag49
ag49
ag49
ag49
ag50
ag49
ag49
ag49
ag50
ag50
ag49
ag49
aa(lp326
g50
ag50
ag50
ag50
ag50
ag50
ag49
ag50
ag50
ag49
ag50
ag50
ag49
ag49
ag50
ag49
ag49
ag50
ag50
ag50
ag49
aa(lp327
g49
ag50
ag50
ag49
ag50
ag50
ag50
ag50
ag49
ag49
ag49
ag49
ag49
ag49
ag49
ag49
ag50
ag50
ag49
ag50
ag49
aasg15
I00
sg51
(lp328
g317
ag319
ag320
ag321
ag322
ag323
asg14
I1
sbsg16
(iid3_node
node
p329
(dp330
g14
I0
sg8
g304
sg15
I01
sbsg46
(lp331
g325
ag317
ag319
ag320
ag321
ag326
ag322
ag323
ag327
asg15
I00
sg51
(lp332
(lp333
g49
ag50
ag50
ag50
ag49
ag50
ag49
ag50
ag49
ag49
ag50
ag49
ag49
ag50
ag49
ag49
ag50
ag49
ag49
ag49
ag49
aa(lp334
g49
ag50
ag50
ag49
ag49
ag50
ag49
ag50
ag50
ag49
ag49
ag50
ag50
ag49
ag49
ag50
ag49
ag49
ag49
ag50
ag49
aa(lp335
g50
ag50
ag50
ag50
ag49
ag49
ag49
ag50
ag50
ag49
ag49
ag50
ag50
ag49
ag49
ag50
ag49
ag50
ag49
ag50
ag49
aa(lp336
g50
ag50
ag50
ag49
ag49
ag50
ag50
ag50
ag50
ag49
ag49
ag50
ag50
ag50
ag49
ag50
ag50
ag50
ag49
ag50
ag49
aa(lp337
g50
ag50
ag50
ag50
ag49
ag50
ag49
ag50
ag49
ag49
ag49
ag50
ag49
ag50
ag50
ag49
ag49
ag50
ag49
ag50
ag49
aa(lp338
g49
ag50
ag50
ag49
ag49
ag49
ag50
ag50
ag50
ag49
ag49
ag49
ag49
ag50
ag50
ag49
ag49
ag49
ag50
ag49
ag49
aa(lp339
g49
ag50
ag50
ag49
ag49
ag50
ag50
ag50
ag50
ag49
ag49
ag49
ag50
ag49
ag49
ag49
ag49
ag50
ag49
ag49
ag49
aa(lp340
g50
ag50
ag50
ag49
ag49
ag49
ag50
ag50
ag49
ag49
ag49
ag50
ag50
ag50
ag50
ag49
ag49
ag50
ag50
ag50
ag49
aa(lp341
g50
ag50
ag50
ag50
ag49
ag49
ag50
ag50
ag49
ag49
ag49
ag49
ag50
ag50
ag49
ag50
ag49
ag49
ag50
ag50
ag49
aa(lp342
g50
ag50
ag50
ag49
ag49
ag49
ag50
ag50
ag49
ag49
ag49
ag49
ag49
ag50
ag50
ag49
ag50
ag50
ag50
ag49
ag49
aa(lp343
g50
ag50
ag50
ag50
ag49
ag49
ag49
ag50
ag50
ag49
ag50
ag50
ag49
ag49
ag50
ag50
ag50
ag50
ag50
ag49
ag49
aasg14
I0
sbsg16
(iid3_node
node
p344
(dp345
g2
g147
sg8
g302
sg4
(iid3_node
node
p346
(dp347
g2
S'XJ'
p348
sg8
g344
sg4
(iid3_node
node
p349
(dp350
g2
g133
sg8
g346
sg4
(iid3_node
node
p351
(dp352
g2
g38
sg8
g349
sg4
(iid3_node
node
p353
(dp354
g14
I1
sg8
g351
sg15
I01
sbsg16
(iid3_node
node
p355
(dp356
g2
S'XP'
p357
sg8
g351
sg4
(iid3_node
node
p358
(dp359
g14
I1
sg8
g355
sg15
I01
sbsg16
(iid3_node
node
p360
(dp361
g2
g19
sg8
g355
sg4
(iid3_node
node
p362
(dp363
g14
I1
sg8
g360
sg15
I01
sbsg16
(iid3_node
node
p364
(dp365
g14
I0
sg8
g360
sg15
I01
sbsg46
(lp366
(lp367
g50
ag50
ag49
ag50
ag50
ag50
ag49
ag50
ag50
ag49
ag49
ag50
ag49
ag50
ag49
ag49
ag49
ag50
ag50
ag49
ag50
aasg15
I01
sg51
(lp368
(lp369
g49
ag50
ag49
ag50
ag50
ag50
ag49
ag50
ag50
ag49
ag50
ag50
ag50
ag50
ag49
ag49
ag49
ag50
ag49
ag49
ag49
aasg14
I1
sbsg46
(lp370
(lp371
g50
ag50
ag49
ag49
ag49
ag49
ag50
ag50
ag50
ag49
ag49
ag50
ag49
ag50
ag50
ag49
ag49
ag50
ag50
ag50
ag50
aa(lp372
g50
ag50
ag49
ag49
ag50
ag49
ag49
ag50
ag50
ag49
ag50
ag50
ag49
ag50
ag50
ag49
ag49
ag50
ag49
ag50
ag50
aa(lp373
g49
ag50
ag49
ag50
ag50
ag50
ag50
ag50
ag50
ag49
ag49
ag49
ag50
ag50
ag50
ag50
ag49
ag50
ag49
ag49
ag50
aasg15
I01
sg51
(lp374
g367
ag369
asg14
I1
sbsg46
(lp375
(lp376
g50
ag50
ag49
ag50
ag49
ag50
ag49
ag50
ag50
ag49
ag49
ag50
ag50
ag50
ag49
ag49
ag50
ag50
ag50
ag49
ag50
aa(lp377
g50
ag50
ag49
ag49
ag49
ag50
ag49
ag50
ag50
ag49
ag49
ag50
ag49
ag50
ag50
ag49
ag50
ag50
ag50
ag49
ag50
aa(lp378
g49
ag50
ag49
ag49
ag50
ag49
ag50
ag50
ag50
ag49
ag50
ag50
ag50
ag50
ag49
ag49
ag50
ag50
ag49
ag50
ag50
aa(lp379
g50
ag50
ag49
ag50
ag49
ag49
ag50
ag50
ag50
ag49
ag50
ag50
ag50
ag50
ag50
ag49
ag50
ag50
ag49
ag49
ag50
aa(lp380
g49
ag50
ag49
ag49
ag50
ag50
ag50
ag50
ag50
ag49
ag49
ag49
ag50
ag50
ag49
ag50
ag50
ag50
ag49
ag50
ag50
aa(lp381
g49
ag50
ag49
ag50
ag49
ag50
ag50
ag50
ag50
ag49
ag50
ag49
ag50
ag50
ag50
ag50
ag50
ag50
ag49
ag50
ag50
aa(lp382
g50
ag50
ag49
ag49
ag49
ag49
ag50
ag50
ag50
ag49
ag49
ag49
ag50
ag50
ag49
ag49
ag50
ag50
ag50
ag49
ag50
aa(lp383
g49
ag50
ag49
ag50
ag50
ag50
ag49
ag50
ag50
ag49
ag50
ag49
ag49
ag50
ag50
ag49
ag50
ag50
ag49
ag49
ag50
aa(lp384
g49
ag50
ag49
ag49
ag49
ag50
ag50
ag50
ag50
ag49
ag50
ag50
ag50
ag50
ag50
ag49
ag50
ag50
ag50
ag50
ag50
aa(lp385
g50
ag50
ag49
ag49
ag50
ag49
ag49
ag50
ag50
ag49
ag49
ag50
ag50
ag50
ag50
ag49
ag50
ag50
ag49
ag50
ag50
aasg15
I01
sg51
(lp386
g367
ag371
ag369
ag372
ag373
asg14
I1
sbsg16
(iid3_node
node
p387
(dp388
g2
g30
sg8
g349
sg4
(iid3_node
node
p389
(dp390
g2
g138
sg8
g387
sg4
(iid3_node
node
p391
(dp392
g14
I1
sg8
g389
sg15
I01
sbsg16
(iid3_node
node
p393
(dp394
g14
I0
sg8
g389
sg15
I01
sbsg46
(lp395
(lp396
g49
ag50
ag49
ag50
ag49
ag50
ag50
ag50
ag50
ag49
ag50
ag49
ag50
ag49
ag50
ag49
ag50
ag50
ag50
ag50
ag50
aasg15
I00
sg51
(lp397
(lp398
g49
ag50
ag49
ag49
ag49
ag50
ag50
ag50
ag50
ag49
ag50
ag50
ag49
ag49
ag49
ag49
ag50
ag50
ag50
ag49
ag49
aa(lp399
g50
ag50
ag49
ag49
ag49
ag50
ag50
ag50
ag50
ag49
ag49
ag50
ag49
ag49
ag50
ag49
ag50
ag50
ag49
ag50
ag49
aasg14
I0
sbsg16
(iid3_node
node
p400
(dp401
g14
I1
sg8
g387
sg15
I01
sbsg46
(lp402
g398
ag399
ag396
asg15
I01
sg51
(lp403
(lp404
g49
ag50
ag49
ag50
ag50
ag50
ag49
ag50
ag50
ag49
ag50
ag50
ag49
ag49
ag50
ag50
ag49
ag50
ag49
ag50
ag50
aa(lp405
g49
ag50
ag49
ag49
ag50
ag50
ag49
ag50
ag50
ag49
ag50
ag50
ag50
ag49
ag49
ag49
ag50
ag50
ag49
ag49
ag50
aa(lp406
g49
ag50
ag49
ag49
ag50
ag50
ag49
ag50
ag50
ag49
ag50
ag50
ag49
ag49
ag50
ag49
ag50
ag50
ag50
ag50
ag50
aasg14
I1
sbsg46
(lp407
g376
ag367
ag371
ag377
ag378
ag369
ag379
ag380
ag381
ag382
ag372
ag373
ag383
ag384
ag385
asg15
I01
sg51
(lp408
g398
ag404
ag399
ag405
ag396
ag406
asg14
I1
sbsg16
(iid3_node
node
p409
(dp410
g2
g41
sg8
g346
sg4
(iid3_node
node
p411
(dp412
g14
I0
sg8
g409
sg15
I01
sbsg16
(iid3_node
node
p413
(dp414
g2
g79
sg8
g409
sg4
(iid3_node
node
p415
(dp416
g2
g171
sg8
g413
sg4
(iid3_node
node
p417
(dp418
g2
g19
sg8
g415
sg4
(iid3_node
node
p419
(dp420
g2
g357
sg8
g417
sg4
(iid3_node
node
p421
(dp422
g14
I1
sg8
g419
sg15
I01
sbsg16
(iid3_node
node
p423
(dp424
g14
I0
sg8
g419
sg15
I01
sbsg46
(lp425
(lp426
g50
ag50
ag49
ag49
ag50
ag49
ag49
ag50
ag49
ag49
ag50
ag50
ag50
ag50
ag50
ag49
ag50
ag50
ag50
ag49
ag50
aasg15
I01
sg51
(lp427
(lp428
g50
ag50
ag49
ag50
ag49
ag50
ag49
ag50
ag49
ag49
ag50
ag50
ag50
ag50
ag49
ag49
ag50
ag50
ag50
ag49
ag49
aasg14
I1
sbsg16
(iid3_node
node
p429
(dp430
g14
I1
sg8
g417
sg15
I01
sbsg46
(lp431
g428
ag426
asg15
I01
sg51
(lp432
(lp433
g50
ag50
ag49
ag50
ag50
ag50
ag49
ag50
ag49
ag49
ag50
ag50
ag50
ag50
ag49
ag49
ag50
ag50
ag49
ag50
ag50
aa(lp434
g50
ag50
ag49
ag50
ag49
ag50
ag50
ag50
ag49
ag49
ag50
ag50
ag49
ag50
ag50
ag49
ag50
ag50
ag49
ag50
ag50
aa(lp435
g49
ag50
ag49
ag49
ag50
ag49
ag49
ag50
ag49
ag49
ag50
ag50
ag50
ag50
ag49
ag49
ag49
ag50
ag49
ag49
ag50
aasg14
I1
sbsg16
(iid3_node
node
p436
(dp437
g14
I1
sg8
g415
sg15
I01
sbsg46
(lp438
g428
ag433
ag434
ag426
ag435
asg15
I01
sg51
(lp439
(lp440
g49
ag50
ag49
ag49
ag49
ag50
ag50
ag50
ag49
ag49
ag49
ag50
ag49
ag50
ag50
ag49
ag50
ag50
ag50
ag49
ag50
aa(lp441
g49
ag50
ag49
ag50
ag49
ag50
ag49
ag50
ag49
ag49
ag49
ag50
ag50
ag50
ag49
ag49
ag50
ag50
ag49
ag49
ag50
aa(lp442
g49
ag50
ag49
ag50
ag49
ag50
ag49
ag50
ag49
ag49
ag49
ag50
ag50
ag49
ag49
ag49
ag50
ag50
ag50
ag50
ag50
aa(lp443
g50
ag50
ag49
ag50
ag49
ag50
ag50
ag50
ag49
ag49
ag49
ag50
ag50
ag50
ag49
ag49
ag50
ag50
ag50
ag49
ag50
aa(lp444
g49
ag50
ag49
ag50
ag50
ag50
ag50
ag50
ag49
ag49
ag49
ag50
ag50
ag49
ag49
ag49
ag49
ag50
ag50
ag49
ag50
aa(lp445
g49
ag50
ag49
ag49
ag50
ag49
ag49
ag50
ag49
ag49
ag49
ag50
ag50
ag49
ag50
ag49
ag50
ag50
ag49
ag49
ag50
aasg14
I1
sbsg16
(iid3_node
node
p446
(dp447
g14
I0
sg8
g413
sg15
I01
sbsg46
(lp448
g428
ag440
ag441
ag433
ag434
ag442
ag443
ag444
ag445
ag426
ag435
asg15
I00
sg51
(lp449
(lp450
g49
ag50
ag49
ag49
ag50
ag49
ag49
ag50
ag49
ag49
ag50
ag49
ag50
ag50
ag50
ag49
ag50
ag50
ag49
ag50
ag49
aa(lp451
g50
ag50
ag49
ag49
ag49
ag49
ag49
ag50
ag49
ag49
ag50
ag49
ag50
ag50
ag50
ag49
ag49
ag50
ag49
ag50
ag49
aasg14
I1
sbsg46
(lp452
(lp453
g50
ag50
ag49
ag50
ag50
ag49
ag50
ag50
ag49
ag49
ag49
ag50
ag50
ag49
ag49
ag50
ag50
ag50
ag50
ag50
ag49
aa(lp454
g50
ag50
ag49
ag50
ag49
ag50
ag49
ag50
ag49
ag49
ag49
ag50
ag49
ag50
ag49
ag50
ag49
ag50
ag49
ag49
ag49
aasg15
I00
sg51
(lp455
g428
ag440
ag441
ag433
ag434
ag450
ag442
ag443
ag444
ag451
ag445
ag426
ag435
asg14
I1
sbsg46
(lp456
g398
ag376
ag367
ag404
ag399
ag371
ag377
ag378
ag405
ag396
ag406
ag369
ag379
ag380
ag381
ag382
ag372
ag373
ag383
ag384
ag385
asg15
I00
sg51
(lp457
g428
ag440
ag441
ag433
ag434
ag450
ag453
ag442
ag443
ag444
ag451
ag454
ag445
ag426
ag435
asg14
I1
sbsg16
(iid3_node
node
p458
(dp459
g2
g27
sg8
g344
sg4
(iid3_node
node
p460
(dp461
g2
g357
sg8
g458
sg4
(iid3_node
node
p462
(dp463
g2
g30
sg8
g460
sg4
(iid3_node
node
p464
(dp465
g2
g38
sg8
g462
sg4
(iid3_node
node
p466
(dp467
g2
g33
sg8
g464
sg4
(iid3_node
node
p468
(dp469
g14
I1
sg8
g466
sg15
I01
sbsg16
(iid3_node
node
p470
(dp471
g2
g41
sg8
g466
sg4
(iid3_node
node
p472
(dp473
g14
I0
sg8
g470
sg15
I01
sbsg16
(iid3_node
node
p474
(dp475
g14
I1
sg8
g470
sg15
I01
sbsg46
(lp476
(lp477
g49
ag50
ag49
ag50
ag50
ag50
ag50
ag50
ag50
ag49
ag49
ag49
ag49
ag50
ag50
ag50
ag50
ag49
ag50
ag49
ag49
aa(lp478
g50
ag50
ag49
ag50
ag50
ag50
ag50
ag50
ag49
ag49
ag50
ag50
ag50
ag50
ag50
ag50
ag50
ag49
ag49
ag49
ag49
aasg15
I01
sg51
(lp479
(lp480
g49
ag50
ag49
ag49
ag50
ag49
ag50
ag50
ag50
ag49
ag49
ag49
ag50
ag50
ag50
ag49
ag50
ag49
ag50
ag49
ag50
aasg14
I0
sbsg46
(lp481
(lp482
g49
ag50
ag49
ag50
ag50
ag50
ag50
ag50
ag49
ag49
ag49
ag50
ag49
ag49
ag50
ag50
ag50
ag49
ag49
ag50
ag50
aasg15
I00
sg51
(lp483
g477
ag480
ag478
asg14
I1
sbsg16
(iid3_node
node
p484
(dp485
g14
I0
sg8
g464
sg15
I01
sbsg46
(lp486
g482
ag477
ag480
ag478
asg15
I00
sg51
(lp487
(lp488
g49
ag50
ag49
ag49
ag50
ag49
ag50
ag50
ag50
ag49
ag49
ag49
ag49
ag50
ag50
ag49
ag49
ag49
ag50
ag50
ag49
aa(lp489
g49
ag50
ag49
ag49
ag50
ag49
ag50
ag50
ag49
ag49
ag50
ag50
ag50
ag50
ag50
ag49
ag49
ag49
ag50
ag49
ag49
aa(lp490
g49
ag50
ag49
ag50
ag50
ag49
ag50
ag50
ag50
ag49
ag50
ag50
ag50
ag49
ag50
ag49
ag49
ag49
ag49
ag49
ag49
aasg14
I0
sbsg16
(iid3_node
node
p491
(dp492
g14
I1
sg8
g462
sg15
I01
sbsg46
(lp493
g482
ag488
ag477
ag489
ag480
ag478
ag490
asg15
I00
sg51
(lp494
(lp495
g49
ag50
ag49
ag50
ag50
ag50
ag49
ag50
ag50
ag49
ag50
ag49
ag49
ag50
ag50
ag49
ag50
ag49
ag49
ag49
ag50
aa(lp496
g49
ag50
ag49
ag49
ag50
ag50
ag49
ag50
ag49
ag49
ag49
ag50
ag50
ag49
ag50
ag49
ag49
ag49
ag50
ag49
ag50
aasg14
I0
sbsg16
(iid3_node
node
p497
(dp498
g14
I1
sg8
g460
sg15
I01
sbsg46
(lp499
g495
ag482
ag488
ag496
ag477
ag489
ag480
ag478
ag490
asg15
I01
sg51
(lp500
(lp501
g49
ag50
ag49
ag50
ag50
ag50
ag50
ag50
ag49
ag49
ag50
ag50
ag49
ag49
ag49
ag50
ag49
ag49
ag50
ag50
ag50
aa(lp502
g49
ag50
ag49
ag49
ag50
ag50
ag49
ag50
ag50
ag49
ag49
ag50
ag50
ag49
ag49
ag50
ag49
ag49
ag49
ag50
ag50
aa(lp503
g50
ag50
ag49
ag49
ag50
ag50
ag50
ag50
ag50
ag49
ag50
ag50
ag49
ag50
ag49
ag49
ag50
ag49
ag50
ag49
ag50
aa(lp504
g50
ag50
ag49
ag49
ag50
ag49
ag49
ag50
ag49
ag49
ag49
ag50
ag50
ag50
ag49
ag49
ag49
ag49
ag50
ag50
ag50
aa(lp505
g49
ag50
ag49
ag50
ag50
ag50
ag50
ag50
ag50
ag49
ag50
ag49
ag50
ag50
ag49
ag49
ag50
ag49
ag49
ag50
ag50
aa(lp506
g50
ag50
ag49
ag50
ag50
ag49
ag49
ag50
ag49
ag49
ag49
ag50
ag49
ag50
ag49
ag49
ag49
ag49
ag50
ag49
ag50
aa(lp507
g49
ag50
ag49
ag50
ag50
ag49
ag49
ag50
ag49
ag49
ag49
ag50
ag49
ag49
ag49
ag50
ag50
ag49
ag49
ag50
ag50
aasg14
I1
sbsg16
(iid3_node
node
p508
(dp509
g2
g357
sg8
g458
sg4
(iid3_node
node
p510
(dp511
g2
g38
sg8
g508
sg4
(iid3_node
node
p512
(dp513
g14
I1
sg8
g510
sg15
I01
sbsg16
(iid3_node
node
p514
(dp515
g14
I0
sg8
g510
sg15
I01
sbsg46
(lp516
(lp517
g50
ag50
ag49
ag50
ag49
ag49
ag49
ag50
ag50
ag49
ag50
ag49
ag50
ag50
ag50
ag50
ag50
ag49
ag49
ag50
ag50
aasg15
I01
sg51
(lp518
(lp519
g50
ag50
ag49
ag49
ag49
ag49
ag50
ag50
ag49
ag49
ag49
ag49
ag50
ag50
ag50
ag50
ag49
ag49
ag49
ag50
ag49
aasg14
I1
sbsg16
(iid3_node
node
p520
(dp521
g14
I0
sg8
g508
sg15
I01
sbsg46
(lp522
g519
ag517
asg15
I00
sg51
(lp523
(lp524
g49
ag50
ag49
ag49
ag49
ag49
ag49
ag50
ag50
ag49
ag50
ag50
ag50
ag49
ag49
ag50
ag50
ag49
ag49
ag50
ag49
aa(lp525
g49
ag50
ag49
ag50
ag49
ag50
ag49
ag50
ag49
ag49
ag49
ag50
ag50
ag49
ag49
ag50
ag50
ag49
ag50
ag50
ag49
aa(lp526
g49
ag50
ag49
ag50
ag49
ag50
ag50
ag50
ag50
ag49
ag50
ag50
ag50
ag49
ag49
ag49
ag49
ag49
ag49
ag50
ag49
aasg14
I0
sbsg46
(lp527
g495
ag482
ag488
ag501
ag502
ag496
ag503
ag504
ag477
ag489
ag505
ag506
ag480
ag507
ag478
ag490
asg15
I00
sg51
(lp528
g524
ag519
ag525
ag517
ag526
asg14
I1
sbsg46
(lp529
g428
ag398
ag376
ag440
ag367
ag404
ag399
ag371
ag377
ag378
ag405
ag396
ag441
ag433
ag434
ag406
ag369
ag379
ag380
ag450
ag381
ag382
ag453
ag372
ag442
ag443
ag373
ag383
ag384
ag444
ag451
ag454
ag445
ag426
ag435
ag385
asg15
I00
sg51
(lp530
g495
ag482
ag524
ag488
ag501
ag502
ag496
ag519
ag525
ag503
ag504
ag477
ag517
ag489
ag505
ag526
ag506
ag480
ag507
ag478
ag490
asg14
I1
sbsg46
(lp531
g333
ag334
ag335
ag325
ag336
ag317
ag319
ag337
ag338
ag320
ag321
ag326
ag339
ag340
ag341
ag342
ag322
ag323
ag327
ag343
asg15
I00
sg51
(lp532
g428
ag398
ag495
ag376
ag482
ag524
ag440
ag367
ag488
ag404
ag399
ag501
ag371
ag502
ag496
ag377
ag378
ag405
ag396
ag441
ag433
ag434
ag406
ag369
ag519
ag379
ag525
ag380
ag503
ag504
ag477
ag450
ag381
ag382
ag517
ag489
ag453
ag505
ag526
ag372
ag442
ag443
ag373
ag506
ag480
ag507
ag383
ag478
ag384
ag444
ag451
ag454
ag445
ag426
ag435
ag490
ag385
asg14
I1
sbsg16
(iid3_node
node
p533
(dp534
g2
g147
sg8
g299
sg4
(iid3_node
node
p535
(dp536
g2
g38
sg8
g533
sg4
(iid3_node
node
p537
(dp538
g2
S'XG'
p539
sg8
g535
sg4
(iid3_node
node
p540
(dp541
g14
I0
sg8
g537
sg15
I01
sbsg16
(iid3_node
node
p542
(dp543
g2
g79
sg8
g537
sg4
(iid3_node
node
p544
(dp545
g2
g11
sg8
g542
sg4
(iid3_node
node
p546
(dp547
g14
I1
sg8
g544
sg15
I01
sbsg16
(iid3_node
node
p548
(dp549
g14
I0
sg8
g544
sg15
I01
sbsg46
(lp550
(lp551
g50
ag49
ag50
ag50
ag50
ag49
ag50
ag50
ag50
ag49
ag50
ag50
ag49
ag50
ag49
ag49
ag50
ag50
ag49
ag50
ag50
aa(lp552
g50
ag49
ag50
ag49
ag49
ag49
ag49
ag50
ag50
ag49
ag49
ag50
ag49
ag49
ag49
ag49
ag50
ag50
ag50
ag50
ag50
aa(lp553
g50
ag49
ag50
ag50
ag50
ag49
ag50
ag50
ag49
ag49
ag50
ag50
ag50
ag49
ag49
ag49
ag50
ag50
ag49
ag50
ag50
aa(lp554
g50
ag49
ag50
ag49
ag49
ag49
ag50
ag50
ag50
ag49
ag49
ag50
ag50
ag49
ag49
ag49
ag50
ag50
ag50
ag49
ag50
aa(lp555
g50
ag49
ag50
ag49
ag50
ag49
ag50
ag50
ag50
ag49
ag49
ag50
ag49
ag49
ag49
ag49
ag50
ag50
ag49
ag49
ag50
aa(lp556
g49
ag49
ag50
ag50
ag50
ag49
ag49
ag50
ag49
ag49
ag49
ag50
ag49
ag50
ag49
ag49
ag50
ag50
ag50
ag50
ag50
aasg15
I01
sg51
(lp557
(lp558
g50
ag49
ag49
ag50
ag50
ag49
ag50
ag50
ag50
ag49
ag49
ag50
ag49
ag50
ag49
ag49
ag50
ag50
ag49
ag49
ag49
aasg14
I1
sbsg16
(iid3_node
node
p559
(dp560
g2
g30
sg8
g542
sg4
(iid3_node
node
p561
(dp562
g2
g22
sg8
g559
sg4
(iid3_node
node
p563
(dp564
g2
g27
sg8
g561
sg4
(iid3_node
node
p565
(dp566
g14
I0
sg8
g563
sg15
I01
sbsg16
(iid3_node
node
p567
(dp568
g14
I1
sg8
g563
sg15
I01
sbsg46
(lp569
(lp570
g50
ag49
ag50
ag49
ag50
ag49
ag50
ag50
ag49
ag49
ag50
ag49
ag49
ag50
ag49
ag49
ag50
ag50
ag49
ag49
ag49
aa(lp571
g50
ag49
ag50
ag50
ag50
ag49
ag50
ag50
ag50
ag49
ag49
ag49
ag50
ag49
ag50
ag49
ag50
ag50
ag50
ag49
ag49
aasg15
I01
sg51
(lp572
(lp573
g50
ag49
ag50
ag49
ag49
ag49
ag50
ag50
ag50
ag49
ag49
ag49
ag49
ag49
ag49
ag49
ag50
ag50
ag50
ag49
ag50
aa(lp574
g50
ag49
ag50
ag50
ag49
ag49
ag50
ag50
ag50
ag49
ag49
ag49
ag50
ag49
ag49
ag49
ag50
ag50
ag50
ag50
ag50
aasg14
I1
sbsg16
(iid3_node
node
p575
(dp576
g14
I1
sg8
g561
sg15
I01
sbsg46
(lp577
g573
ag570
ag571
ag574
asg15
I01
sg51
(lp578
(lp579
g49
ag49
ag49
ag49
ag50
ag49
ag50
ag50
ag50
ag49
ag50
ag49
ag50
ag50
ag50
ag49
ag50
ag50
ag50
ag49
ag50
aa(lp580
g49
ag49
ag50
ag49
ag50
ag49
ag50
ag50
ag49
ag49
ag50
ag49
ag50
ag50
ag49
ag49
ag50
ag50
ag49
ag50
ag50
aa(lp581
g49
ag49
ag50
ag50
ag50
ag49
ag50
ag50
ag49
ag49
ag50
ag49
ag50
ag50
ag49
ag49
ag50
ag50
ag50
ag49
ag50
aasg14
I1
sbsg16
(iid3_node
node
p582
(dp583
g14
I0
sg8
g559
sg15
I01
sbsg46
(lp584
g573
ag570
ag579
ag571
ag580
ag581
ag574
asg15
I01
sg51
(lp585
(lp586
g49
ag49
ag50
ag49
ag50
ag49
ag49
ag50
ag49
ag49
ag49
ag49
ag50
ag50
ag50
ag49
ag50
ag50
ag49
ag49
ag49
aa(lp587
g50
ag49
ag50
ag49
ag49
ag49
ag49
ag50
ag49
ag49
ag49
ag49
ag50
ag49
ag49
ag50
ag50
ag50
ag49
ag50
ag49
aa(lp588
g50
ag49
ag49
ag50
ag50
ag49
ag49
ag50
ag49
ag49
ag49
ag49
ag49
ag50
ag49
ag49
ag50
ag50
ag50
ag50
ag49
aasg14
I1
sbsg46
(lp589
g551
ag558
ag552
ag553
ag554
ag555
ag556
asg15
I01
sg51
(lp590
g586
ag573
ag570
ag579
ag587
ag571
ag588
ag580
ag581
ag574
asg14
I1
sbsg46
(lp591
(lp592
g49
ag49
ag49
ag49
ag50
ag50
ag49
ag50
ag50
ag49
ag49
ag49
ag50
ag49
ag50
ag49
ag50
ag50
ag49
ag49
ag49
aa(lp593
g50
ag49
ag49
ag49
ag49
ag50
ag50
ag50
ag49
ag49
ag50
ag49
ag49
ag49
ag50
ag50
ag50
ag50
ag50
ag50
ag49
aa(lp594
g49
ag49
ag49
ag49
ag50
ag50
ag50
ag50
ag49
ag49
ag49
ag50
ag50
ag49
ag50
ag50
ag50
ag50
ag50
ag50
ag49
aa(lp595
g50
ag49
ag50
ag49
ag50
ag50
ag49
ag50
ag50
ag49
ag50
ag50
ag50
ag50
ag49
ag49
ag50
ag50
ag50
ag50
ag49
aa(lp596
g50
ag49
ag50
ag50
ag49
ag50
ag49
ag50
ag50
ag49
ag50
ag50
ag49
ag50
ag50
ag49
ag50
ag50
ag49
ag49
ag49
aa(lp597
g50
ag49
ag49
ag50
ag49
ag50
ag50
ag50
ag50
ag49
ag49
ag50
ag49
ag49
ag49
ag49
ag50
ag50
ag50
ag50
ag49
aasg15
I00
sg51
(lp598
g551
ag586
ag558
ag573
ag570
ag579
ag587
ag571
ag552
ag553
ag554
ag555
ag588
ag580
ag556
ag581
ag574
asg14
I0
sbsg16
(iid3_node
node
p599
(dp600
g2
g138
sg8
g535
sg4
(iid3_node
node
p601
(dp602
g2
g30
sg8
g599
sg4
(iid3_node
node
p603
(dp604
g2
g19
sg8
g601
sg4
(iid3_node
node
p605
(dp606
g2
g27
sg8
g603
sg4
(iid3_node
node
p607
(dp608
g14
I1
sg8
g605
sg15
I01
sbsg16
(iid3_node
node
p609
(dp610
g14
I0
sg8
g605
sg15
I01
sbsg46
(lp611
(lp612
g50
ag49
ag50
ag50
ag50
ag50
ag50
ag50
ag50
ag49
ag50
ag50
ag50
ag49
ag49
ag50
ag49
ag50
ag50
ag49
ag50
aa(lp613
g49
ag49
ag50
ag49
ag50
ag49
ag50
ag50
ag49
ag49
ag50
ag49
ag50
ag50
ag49
ag49
ag49
ag50
ag50
ag49
ag50
aasg15
I01
sg51
(lp614
(lp615
g50
ag49
ag50
ag49
ag49
ag50
ag50
ag50
ag49
ag49
ag50
ag49
ag50
ag49
ag49
ag50
ag49
ag50
ag50
ag49
ag49
aasg14
I1
sbsg16
(iid3_node
node
p616
(dp617
g14
I0
sg8
g603
sg15
I01
sbsg46
(lp618
g612
ag615
ag613
asg15
I00
sg51
(lp619
(lp620
g50
ag49
ag50
ag49
ag50
ag49
ag50
ag50
ag49
ag49
ag49
ag49
ag50
ag49
ag50
ag50
ag49
ag50
ag49
ag49
ag49
aa(lp621
g50
ag49
ag50
ag49
ag50
ag50
ag50
ag50
ag50
ag49
ag49
ag50
ag50
ag49
ag50
ag50
ag49
ag50
ag49
ag49
ag49
aa(lp622
g49
ag49
ag49
ag49
ag49
ag50
ag50
ag50
ag50
ag49
ag50
ag50
ag50
ag50
ag49
ag50
ag49
ag50
ag49
ag50
ag49
aa(lp623
g50
ag49
ag49
ag50
ag50
ag50
ag50
ag50
ag50
ag49
ag49
ag50
ag50
ag50
ag49
ag49
ag49
ag50
ag49
ag49
ag49
aasg14
I0
sbsg16
(iid3_node
node
p624
(dp625
g2
g33
sg8
g601
sg4
(iid3_node
node
p626
(dp627
g2
g348
sg8
g624
sg4
(iid3_node
node
p628
(dp629
g14
I1
sg8
g626
sg15
I01
sbsg16
(iid3_node
node
p630
(dp631
g2
g11
sg8
g626
sg4
(iid3_node
node
p632
(dp633
g14
I1
sg8
g630
sg15
I01
sbsg16
(iid3_node
node
p634
(dp635
g14
I0
sg8
g630
sg15
I01
sbsg46
(lp636
(lp637
g49
ag49
ag50
ag49
ag50
ag49
ag49
ag50
ag49
ag49
ag50
ag49
ag50
ag50
ag49
ag49
ag49
ag50
ag49
ag50
ag50
aasg15
I00
sg51
(lp638
(lp639
g49
ag49
ag49
ag50
ag50
ag50
ag49
ag50
ag49
ag49
ag50
ag49
ag50
ag50
ag49
ag50
ag49
ag50
ag50
ag50
ag49
aa(lp640
g49
ag49
ag49
ag49
ag49
ag49
ag49
ag50
ag49
ag49
ag50
ag49
ag50
ag50
ag50
ag49
ag49
ag50
ag49
ag50
ag49
aasg14
I0
sbsg46
(lp641
(lp642
g49
ag49
ag50
ag49
ag50
ag50
ag49
ag50
ag50
ag49
ag50
ag49
ag50
ag50
ag49
ag50
ag49
ag50
ag50
ag50
ag50
aa(lp643
g49
ag49
ag49
ag49
ag49
ag50
ag49
ag50
ag50
ag49
ag49
ag50
ag50
ag49
ag49
ag50
ag49
ag50
ag49
ag50
ag50
aasg15
I01
sg51
(lp644
g639
ag640
ag637
asg14
I1
sbsg16
(iid3_node
node
p645
(dp646
g14
I1
sg8
g624
sg15
I01
sbsg46
(lp647
g639
ag642
ag640
ag643
ag637
asg15
I01
sg51
(lp648
(lp649
g49
ag49
ag49
ag50
ag50
ag49
ag49
ag50
ag49
ag49
ag50
ag50
ag50
ag50
ag50
ag49
ag49
ag50
ag49
ag49
ag50
aa(lp650
g49
ag49
ag49
ag49
ag49
ag50
ag49
ag50
ag50
ag49
ag50
ag49
ag50
ag49
ag50
ag49
ag49
ag50
ag50
ag49
ag50
aa(lp651
g50
ag49
ag50
ag50
ag50
ag50
ag49
ag50
ag50
ag49
ag50
ag50
ag50
ag49
ag49
ag49
ag49
ag50
ag50
ag49
ag50
aa(lp652
g50
ag49
ag50
ag49
ag49
ag50
ag49
ag50
ag50
ag49
ag49
ag50
ag50
ag49
ag49
ag49
ag49
ag50
ag49
ag49
ag50
aa(lp653
g49
ag49
ag49
ag49
ag49
ag50
ag49
ag50
ag49
ag49
ag49
ag50
ag50
ag50
ag50
ag49
ag49
ag50
ag50
ag49
ag50
aa(lp654
g50
ag49
ag50
ag49
ag50
ag50
ag49
ag50
ag50
ag49
ag49
ag50
ag50
ag49
ag49
ag50
ag49
ag50
ag50
ag49
ag50
aasg14
I1
sbsg46
(lp655
g620
ag612
ag615
ag613
ag621
ag622
ag623
asg15
I00
sg51
(lp656
g649
ag639
ag650
ag642
ag640
ag651
ag652
ag643
ag653
ag654
ag637
asg14
I1
sbsg16
(iid3_node
node
p657
(dp658
g14
I1
sg8
g599
sg15
I01
sbsg46
(lp659
g620
ag649
ag612
ag615
ag639
ag613
ag650
ag642
ag640
ag651
ag652
ag621
ag643
ag653
ag654
ag622
ag637
ag623
asg15
I00
sg51
(lp660
(lp661
g49
ag49
ag50
ag50
ag49
ag50
ag50
ag50
ag50
ag49
ag49
ag49
ag49
ag50
ag49
ag49
ag49
ag50
ag49
ag50
ag50
aa(lp662
g50
ag49
ag50
ag50
ag50
ag50
ag50
ag50
ag49
ag49
ag50
ag50
ag49
ag49
ag49
ag49
ag49
ag50
ag50
ag50
ag50
aa(lp663
g49
ag49
ag49
ag50
ag49
ag50
ag50
ag50
ag50
ag49
ag50
ag50
ag49
ag50
ag50
ag49
ag49
ag50
ag50
ag50
ag50
aa(lp664
g49
ag49
ag49
ag49
ag50
ag50
ag50
ag50
ag49
ag49
ag49
ag49
ag49
ag50
ag49
ag49
ag49
ag50
ag50
ag50
ag50
aa(lp665
g50
ag49
ag49
ag50
ag49
ag50
ag50
ag50
ag49
ag49
ag50
ag49
ag49
ag50
ag50
ag49
ag49
ag50
ag49
ag50
ag50
aa(lp666
g49
ag49
ag50
ag50
ag49
ag50
ag49
ag50
ag49
ag49
ag49
ag50
ag49
ag49
ag49
ag49
ag49
ag50
ag50
ag49
ag50
aa(lp667
g49
ag49
ag49
ag50
ag50
ag50
ag50
ag50
ag49
ag49
ag50
ag49
ag49
ag50
ag49
ag50
ag49
ag50
ag49
ag49
ag50
aa(lp668
g50
ag49
ag50
ag50
ag50
ag50
ag49
ag50
ag50
ag49
ag50
ag50
ag49
ag50
ag49
ag49
ag49
ag50
ag50
ag49
ag50
aa(lp669
g49
ag49
ag50
ag50
ag49
ag50
ag50
ag50
ag50
ag49
ag49
ag49
ag49
ag49
ag49
ag50
ag49
ag50
ag50
ag50
ag50
aa(lp670
g49
ag49
ag49
ag50
ag49
ag50
ag50
ag50
ag50
ag49
ag50
ag49
ag49
ag50
ag50
ag50
ag49
ag50
ag49
ag50
ag50
aa(lp671
g49
ag49
ag49
ag50
ag50
ag50
ag50
ag50
ag50
ag49
ag49
ag50
ag49
ag49
ag50
ag50
ag49
ag50
ag49
ag50
ag50
aa(lp672
g50
ag49
ag50
ag50
ag50
ag50
ag50
ag50
ag50
ag49
ag50
ag50
ag49
ag50
ag49
ag49
ag49
ag50
ag50
ag49
ag50
aa(lp673
g50
ag49
ag50
ag49
ag50
ag49
ag49
ag50
ag49
ag49
ag50
ag50
ag49
ag50
ag49
ag49
ag49
ag50
ag50
ag50
ag50
aa(lp674
g49
ag49
ag49
ag50
ag49
ag50
ag50
ag50
ag49
ag49
ag49
ag49
ag49
ag49
ag49
ag49
ag49
ag50
ag49
ag49
ag50
aa(lp675
g49
ag49
ag50
ag50
ag50
ag49
ag49
ag50
ag50
ag49
ag50
ag49
ag49
ag50
ag49
ag49
ag49
ag50
ag50
ag50
ag50
aa(lp676
g50
ag49
ag50
ag50
ag49
ag50
ag50
ag50
ag49
ag49
ag49
ag50
ag49
ag49
ag49
ag50
ag49
ag50
ag50
ag50
ag50
aa(lp677
g50
ag49
ag50
ag49
ag49
ag50
ag50
ag50
ag49
ag49
ag49
ag50
ag49
ag50
ag49
ag49
ag49
ag50
ag49
ag50
ag50
aasg14
I1
sbsg46
(lp678
g551
ag586
ag558
ag573
ag570
ag579
ag592
ag587
ag593
ag594
ag571
ag552
ag553
ag595
ag554
ag555
ag596
ag588
ag580
ag556
ag581
ag574
ag597
asg15
I00
sg51
(lp679
g620
ag661
ag662
ag649
ag612
ag663
ag664
ag665
ag615
ag666
ag667
ag639
ag613
ag650
ag668
ag669
ag670
ag642
ag671
ag672
ag640
ag651
ag652
ag621
ag643
ag653
ag654
ag673
ag622
ag637
ag674
ag623
ag675
ag676
ag677
asg14
I1
sbsg16
(iid3_node
node
p680
(dp681
g2
g539
sg8
g533
sg4
(iid3_node
node
p682
(dp683
g2
g133
sg8
g680
sg4
(iid3_node
node
p684
(dp685
g2
g171
sg8
g682
sg4
(iid3_node
node
p686
(dp687
g14
I0
sg8
g684
sg15
I01
sbsg16
(iid3_node
node
p688
(dp689
g2
g30
sg8
g684
sg4
(iid3_node
node
p690
(dp691
g14
I1
sg8
g688
sg15
I01
sbsg16
(iid3_node
node
p692
(dp693
g14
I0
sg8
g688
sg15
I01
sbsg46
(lp694
(lp695
g49
ag49
ag50
ag49
ag50
ag50
ag50
ag50
ag50
ag49
ag49
ag49
ag50
ag50
ag49
ag49
ag49
ag49
ag49
ag50
ag50
aa(lp696
g49
ag49
ag50
ag49
ag50
ag50
ag50
ag50
ag49
ag49
ag49
ag49
ag50
ag50
ag49
ag50
ag49
ag49
ag50
ag49
ag50
aa(lp697
g49
ag49
ag49
ag50
ag50
ag50
ag50
ag50
ag50
ag49
ag49
ag49
ag50
ag50
ag49
ag49
ag49
ag49
ag50
ag50
ag50
aa(lp698
g49
ag49
ag50
ag49
ag50
ag50
ag50
ag50
ag49
ag49
ag49
ag49
ag49
ag50
ag49
ag49
ag49
ag49
ag50
ag49
ag50
aa(lp699
g50
ag49
ag49
ag50
ag50
ag50
ag50
ag50
ag50
ag49
ag49
ag50
ag50
ag50
ag50
ag49
ag49
ag49
ag50
ag50
ag50
aasg15
I01
sg51
(lp700
(lp701
g50
ag49
ag49
ag50
ag49
ag50
ag49
ag50
ag49
ag49
ag49
ag49
ag49
ag50
ag49
ag49
ag49
ag49
ag49
ag50
ag49
aa(lp702
g49
ag49
ag50
ag50
ag50
ag50
ag49
ag50
ag49
ag49
ag49
ag50
ag50
ag50
ag50
ag49
ag49
ag49
ag50
ag50
ag49
aasg14
I1
sbsg46
(lp703
(lp704
g49
ag49
ag50
ag50
ag50
ag50
ag50
ag50
ag50
ag49
ag50
ag49
ag49
ag50
ag49
ag50
ag50
ag49
ag49
ag49
ag49
aa(lp705
g49
ag49
ag50
ag49
ag50
ag50
ag50
ag50
ag50
ag49
ag50
ag49
ag50
ag50
ag50
ag49
ag49
ag49
ag50
ag49
ag49
aasg15
I01
sg51
(lp706
g701
ag695
ag696
ag697
ag698
ag699
ag702
asg14
I1
sbsg16
(iid3_node
node
p707
(dp708
g14
I1
sg8
g682
sg15
I01
sbsg46
(lp709
g701
ag695
ag696
ag697
ag698
ag699
ag704
ag705
ag702
asg15
I01
sg51
(lp710
(lp711
g50
ag49
ag50
ag50
ag50
ag50
ag49
ag50
ag50
ag49
ag50
ag50
ag50
ag49
ag49
ag49
ag49
ag49
ag49
ag50
ag50
aa(lp712
g50
ag49
ag50
ag49
ag50
ag50
ag49
ag50
ag49
ag49
ag49
ag50
ag49
ag49
ag49
ag50
ag49
ag49
ag49
ag49
ag50
aa(lp713
g49
ag49
ag50
ag49
ag50
ag50
ag49
ag50
ag50
ag49
ag50
ag50
ag50
ag49
ag49
ag49
ag49
ag49
ag49
ag50
ag50
aa(lp714
g49
ag49
ag49
ag50
ag50
ag50
ag50
ag50
ag49
ag49
ag49
ag50
ag49
ag49
ag50
ag50
ag49
ag49
ag50
ag50
ag50
aa(lp715
g49
ag49
ag49
ag49
ag50
ag50
ag49
ag50
ag50
ag49
ag50
ag50
ag50
ag49
ag49
ag49
ag49
ag49
ag50
ag49
ag50
aasg14
I1
sbsg16
(iid3_node
node
p716
(dp717
g2
g79
sg8
g680
sg4
(iid3_node
node
p718
(dp719
g2
g19
sg8
g716
sg4
(iid3_node
node
p720
(dp721
g2
g38
sg8
g718
sg4
(iid3_node
node
p722
(dp723
g2
g41
sg8
g720
sg4
(iid3_node
node
p724
(dp725
g14
I0
sg8
g722
sg15
I01
sbsg16
(iid3_node
node
p726
(dp727
g14
I1
sg8
g722
sg15
I01
sbsg46
(lp728
(lp729
g50
ag49
ag49
ag49
ag50
ag49
ag49
ag50
ag50
ag49
ag50
ag50
ag49
ag49
ag50
ag50
ag50
ag49
ag50
ag49
ag49
aasg15
I01
sg51
(lp730
(lp731
g50
ag49
ag49
ag49
ag50
ag49
ag50
ag50
ag50
ag49
ag50
ag50
ag49
ag50
ag50
ag49
ag50
ag49
ag50
ag49
ag50
aa(lp732
g50
ag49
ag50
ag49
ag49
ag49
ag50
ag50
ag50
ag49
ag50
ag50
ag49
ag49
ag50
ag49
ag50
ag49
ag50
ag50
ag50
aa(lp733
g49
ag49
ag50
ag49
ag50
ag49
ag49
ag50
ag49
ag49
ag49
ag50
ag50
ag50
ag50
ag49
ag50
ag49
ag50
ag49
ag50
aa(lp734
g49
ag49
ag50
ag50
ag50
ag49
ag49
ag50
ag50
ag49
ag50
ag50
ag50
ag49
ag50
ag49
ag50
ag49
ag50
ag49
ag50
aa(lp735
g50
ag49
ag49
ag50
ag50
ag49
ag50
ag50
ag49
ag49
ag49
ag50
ag49
ag50
ag49
ag49
ag50
ag49
ag50
ag49
ag50
aa(lp736
g50
ag49
ag50
ag50
ag49
ag49
ag49
ag50
ag49
ag49
ag49
ag50
ag50
ag49
ag49
ag49
ag50
ag49
ag50
ag50
ag50
aasg14
I1
sbsg16
(iid3_node
node
p737
(dp738
g2
g41
sg8
g720
sg4
(iid3_node
node
p739
(dp740
g14
I1
sg8
g737
sg15
I01
sbsg16
(iid3_node
node
p741
(dp742
g2
g133
sg8
g737
sg4
(iid3_node
node
p743
(dp744
g2
g33
sg8
g741
sg4
(iid3_node
node
p745
(dp746
g14
I0
sg8
g743
sg15
I01
sbsg16
(iid3_node
node
p747
(dp748
g14
I1
sg8
g743
sg15
I01
sbsg46
(lp749
(lp750
g50
ag49
ag50
ag50
ag49
ag49
ag50
ag50
ag49
ag49
ag49
ag50
ag49
ag50
ag50
ag49
ag49
ag49
ag50
ag50
ag49
aasg15
I01
sg51
(lp751
(lp752
g50
ag49
ag49
ag50
ag49
ag49
ag50
ag50
ag49
ag49
ag49
ag50
ag49
ag50
ag49
ag49
ag49
ag49
ag50
ag49
ag50
aasg14
I1
sbsg16
(iid3_node
node
p753
(dp754
g14
I0
sg8
g741
sg15
I01
sbsg46
(lp755
g750
ag752
asg15
I00
sg51
(lp756
(lp757
g49
ag49
ag50
ag49
ag50
ag49
ag49
ag50
ag49
ag49
ag50
ag50
ag49
ag49
ag49
ag49
ag49
ag49
ag50
ag49
ag49
aa(lp758
g50
ag49
ag49
ag49
ag49
ag49
ag49
ag50
ag49
ag49
ag50
ag50
ag50
ag49
ag49
ag49
ag49
ag49
ag50
ag49
ag49
aasg14
I0
sbsg46
(lp759
(lp760
g50
ag49
ag50
ag49
ag49
ag49
ag49
ag50
ag50
ag49
ag49
ag50
ag50
ag49
ag49
ag50
ag49
ag49
ag50
ag49
ag50
aa(lp761
g50
ag49
ag50
ag49
ag49
ag49
ag49
ag50
ag49
ag49
ag49
ag50
ag49
ag49
ag49
ag50
ag49
ag49
ag50
ag49
ag50
aa(lp762
g49
ag49
ag49
ag50
ag50
ag49
ag49
ag50
ag49
ag49
ag50
ag50
ag50
ag49
ag50
ag50
ag49
ag49
ag50
ag49
ag50
aasg15
I01
sg51
(lp763
g757
ag750
ag758
ag752
asg14
I1
sbsg46
(lp764
g731
ag732
ag729
ag733
ag734
ag735
ag736
asg15
I01
sg51
(lp765
g760
ag757
ag750
ag761
ag758
ag752
ag762
asg14
I1
sbsg16
(iid3_node
node
p766
(dp767
g14
I1
sg8
g718
sg15
I01
sbsg46
(lp768
g760
ag757
ag750
ag761
ag731
ag758
ag752
ag732
ag729
ag733
ag762
ag734
ag735
ag736
asg15
I01
sg51
(lp769
(lp770
g50
ag49
ag49
ag49
ag50
ag49
ag49
ag50
ag49
ag49
ag50
ag50
ag50
ag50
ag49
ag49
ag50
ag49
ag49
ag49
ag50
aa(lp771
g49
ag49
ag50
ag49
ag50
ag49
ag50
ag50
ag49
ag49
ag49
ag50
ag49
ag49
ag49
ag49
ag49
ag49
ag49
ag50
ag50
aa(lp772
g50
ag49
ag50
ag49
ag49
ag49
ag50
ag50
ag49
ag49
ag49
ag50
ag49
ag49
ag50
ag49
ag49
ag49
ag49
ag50
ag50
aa(lp773
g50
ag49
ag50
ag49
ag50
ag49
ag50
ag50
ag50
ag49
ag50
ag50
ag49
ag49
ag50
ag50
ag49
ag49
ag49
ag49
ag50
aa(lp774
g50
ag49
ag50
ag50
ag49
ag49
ag49
ag50
ag49
ag49
ag50
ag50
ag50
ag49
ag50
ag50
ag50
ag49
ag49
ag49
ag50
aa(lp775
g49
ag49
ag50
ag50
ag50
ag49
ag49
ag50
ag50
ag49
ag49
ag50
ag49
ag49
ag50
ag50
ag50
ag49
ag49
ag49
ag50
aasg14
I1
sbsg16
(iid3_node
node
p776
(dp777
g14
I1
sg8
g716
sg15
I01
sbsg46
(lp778
g770
ag760
ag771
ag757
ag750
ag761
ag731
ag758
ag752
ag732
ag729
ag772
ag733
ag762
ag734
ag773
ag735
ag774
ag775
ag736
asg15
I01
sg51
(lp779
(lp780
g50
ag49
ag49
ag50
ag49
ag49
ag50
ag50
ag50
ag49
ag50
ag49
ag50
ag50
ag50
ag50
ag50
ag49
ag50
ag50
ag50
aa(lp781
g50
ag49
ag50
ag50
ag49
ag49
ag49
ag50
ag50
ag49
ag50
ag49
ag50
ag50
ag50
ag50
ag50
ag49
ag50
ag49
ag50
aa(lp782
g49
ag49
ag49
ag50
ag50
ag49
ag50
ag50
ag50
ag49
ag50
ag49
ag49
ag50
ag50
ag50
ag50
ag49
ag49
ag49
ag50
aa(lp783
g49
ag49
ag50
ag49
ag50
ag49
ag50
ag50
ag49
ag49
ag49
ag49
ag50
ag50
ag50
ag49
ag49
ag49
ag50
ag50
ag50
aa(lp784
g50
ag49
ag50
ag49
ag49
ag49
ag50
ag50
ag50
ag49
ag49
ag49
ag49
ag50
ag49
ag49
ag50
ag49
ag49
ag50
ag50
aa(lp785
g50
ag49
ag50
ag49
ag49
ag49
ag50
ag50
ag50
ag49
ag49
ag49
ag49
ag49
ag50
ag50
ag49
ag49
ag49
ag49
ag50
aa(lp786
g50
ag49
ag50
ag50
ag49
ag49
ag49
ag50
ag49
ag49
ag50
ag49
ag50
ag49
ag50
ag49
ag50
ag49
ag50
ag49
ag50
aa(lp787
g50
ag49
ag50
ag49
ag49
ag49
ag49
ag50
ag49
ag49
ag50
ag49
ag49
ag49
ag50
ag49
ag50
ag49
ag49
ag49
ag50
aa(lp788
g50
ag49
ag50
ag49
ag49
ag49
ag49
ag50
ag50
ag49
ag50
ag49
ag50
ag49
ag50
ag50
ag49
ag49
ag50
ag50
ag50
aa(lp789
g50
ag49
ag49
ag50
ag49
ag49
ag50
ag50
ag50
ag49
ag49
ag49
ag49
ag50
ag49
ag50
ag49
ag49
ag50
ag49
ag50
aa(lp790
g50
ag49
ag50
ag49
ag49
ag49
ag49
ag50
ag49
ag49
ag50
ag49
ag49
ag49
ag50
ag50
ag50
ag49
ag50
ag49
ag50
aa(lp791
g50
ag49
ag50
ag49
ag49
ag49
ag49
ag50
ag49
ag49
ag50
ag49
ag50
ag50
ag50
ag50
ag49
ag49
ag49
ag49
ag50
aa(lp792
g50
ag49
ag49
ag50
ag49
ag49
ag50
ag50
ag50
ag49
ag49
ag49
ag49
ag50
ag50
ag50
ag49
ag49
ag50
ag49
ag50
aasg14
I1
sbsg46
(lp793
g701
ag695
ag696
ag711
ag712
ag713
ag697
ag698
ag714
ag699
ag704
ag705
ag715
ag702
asg15
I01
sg51
(lp794
g780
ag770
ag760
ag771
ag781
ag782
ag783
ag757
ag750
ag784
ag761
ag731
ag758
ag785
ag752
ag732
ag786
ag787
ag729
ag772
ag788
ag733
ag762
ag734
ag773
ag789
ag790
ag791
ag735
ag792
ag774
ag775
ag736
asg14
I1
sbsg46
(lp795
g620
ag551
ag586
ag661
ag558
ag662
ag649
ag573
ag570
ag579
ag612
ag663
ag592
ag664
ag665
ag615
ag666
ag587
ag593
ag667
ag639
ag613
ag650
ag668
ag594
ag669
ag571
ag670
ag642
ag552
ag553
ag671
ag595
ag672
ag640
ag554
ag651
ag652
ag555
ag621
ag643
ag653
ag654
ag596
ag588
ag580
ag673
ag622
ag637
ag674
ag556
ag581
ag623
ag675
ag574
ag597
ag676
ag677
asg15
I00
sg51
(lp796
g780
ag770
ag701
ag760
ag695
ag771
ag781
ag696
ag782
ag711
ag783
ag757
ag750
ag784
ag761
ag731
ag758
ag785
ag752
ag712
ag713
ag697
ag732
ag786
ag698
ag714
ag787
ag729
ag699
ag704
ag772
ag788
ag733
ag705
ag762
ag734
ag773
ag715
ag789
ag790
ag791
ag735
ag792
ag702
ag774
ag775
ag736
asg14
I1
sbsg46
(lp797
g428
ag398
ag495
ag333
ag376
ag334
ag335
ag482
ag524
ag440
ag367
ag488
ag404
ag399
ag501
ag371
ag325
ag502
ag496
ag377
ag378
ag405
ag396
ag441
ag433
ag336
ag434
ag406
ag317
ag319
ag369
ag519
ag379
ag525
ag380
ag337
ag503
ag504
ag477
ag450
ag338
ag381
ag382
ag517
ag489
ag453
ag505
ag526
ag372
ag442
ag320
ag443
ag321
ag326
ag373
ag506
ag480
ag339
ag507
ag383
ag340
ag341
ag478
ag384
ag342
ag322
ag444
ag451
ag454
ag323
ag445
ag327
ag426
ag435
ag490
ag385
ag343
asg15
I00
sg51
(lp798
g780
ag620
ag551
ag770
ag701
ag586
ag760
ag661
ag695
ag558
ag662
ag771
ag649
ag781
ag573
ag570
ag579
ag612
ag663
ag696
ag592
ag782
ag664
ag711
ag665
ag615
ag666
ag587
ag783
ag757
ag593
ag750
ag667
ag639
ag784
ag613
ag650
ag761
ag668
ag731
ag594
ag758
ag785
ag669
ag752
ag712
ag713
ag697
ag571
ag670
ag642
ag552
ag553
ag732
ag671
ag595
ag786
ag672
ag698
ag640
ag554
ag714
ag651
ag787
ag729
ag652
ag699
ag704
ag772
ag555
ag788
ag621
ag643
ag653
ag733
ag654
ag596
ag705
ag588
ag580
ag673
ag622
ag762
ag637
ag674
ag734
ag773
ag556
ag581
ag715
ag623
ag789
ag675
ag790
ag574
ag597
ag791
ag735
ag792
ag702
ag676
ag774
ag775
ag736
ag677
asg14
I1
sbsg46
(lp799
g225
ag113
ag53
ag193
ag90
ag157
ag271
ag204
ag114
ag272
ag115
ag93
ag205
ag116
ag155
ag117
ag235
ag70
ag261
ag226
ag273
ag250
ag99
ag274
ag275
ag262
ag276
ag206
ag153
ag100
ag207
ag227
ag255
ag107
ag277
ag228
ag278
ag71
ag94
ag54
ag279
ag208
ag60
ag280
ag281
ag162
ag247
ag282
ag283
ag194
ag118
ag108
ag55
ag284
ag229
ag158
ag183
ag285
ag63
ag286
ag119
ag72
ag209
ag287
ag163
ag164
ag288
ag210
ag64
ag289
ag120
ag121
ag73
ag122
ag248
ag101
ag190
ag123
ag211
ag230
ag195
ag231
ag165
ag212
ag290
ag124
ag74
ag291
ag159
ag292
ag185
ag109
ag125
ag232
ag293
ag263
ag256
ag48
ag75
ag102
ag126
ag294
ag213
ag61
ag295
ag196
ag296
ag297
ag91
ag233
ag127
ag166
ag214
ag191
ag167
ag76
ag215
asg15
I00
sg51
(lp800
g780
ag428
ag620
ag551
ag398
ag495
ag333
ag376
ag334
ag770
ag701
ag586
ag335
ag482
ag760
ag661
ag695
ag558
ag662
ag771
ag524
ag649
ag440
ag781
ag573
ag367
ag570
ag488
ag404
ag399
ag501
ag579
ag612
ag371
ag325
ag663
ag502
ag496
ag696
ag377
ag592
ag782
ag664
ag711
ag665
ag615
ag666
ag587
ag378
ag405
ag396
ag441
ag783
ag433
ag757
ag336
ag593
ag750
ag434
ag667
ag639
ag406
ag784
ag613
ag317
ag650
ag319
ag369
ag519
ag379
ag525
ag761
ag380
ag668
ag731
ag594
ag758
ag785
ag337
ag669
ag752
ag712
ag713
ag503
ag504
ag477
ag450
ag697
ag338
ag381
ag571
ag670
ag382
ag642
ag552
ag517
ag489
ag553
ag732
ag671
ag595
ag786
ag453
ag505
ag672
ag526
ag372
ag698
ag640
ag554
ag714
ag651
ag442
ag787
ag320
ag443
ag321
ag729
ag652
ag699
ag704
ag772
ag555
ag326
ag788
ag373
ag506
ag621
ag480
ag643
ag339
ag653
ag507
ag733
ag654
ag596
ag383
ag340
ag705
ag588
ag580
ag673
ag341
ag622
ag762
ag478
ag384
ag637
ag674
ag342
ag734
ag773
ag322
ag556
ag581
ag715
ag623
ag444
ag789
ag675
ag790
ag451
ag454
ag574
ag597
ag791
ag735
ag792
ag323
ag445
ag702
ag676
ag774
ag327
ag775
ag426
ag736
ag435
ag677
ag490
ag385
ag343
asg14
I1
sbsg16
(iid3_node
node
p801
(dp802
g2
g33
sg8
g0
sg4
(iid3_node
node
p803
(dp804
g2
g539
sg8
g801
sg4
(iid3_node
node
p805
(dp806
g14
I0
sg8
g803
sg15
I01
sbsg16
(iid3_node
node
p807
(dp808
g2
g147
sg8
g803
sg4
(iid3_node
node
p809
(dp810
g2
g133
sg8
g807
sg4
(iid3_node
node
p811
(dp812
g2
g171
sg8
g809
sg4
(iid3_node
node
p813
(dp814
g14
I0
sg8
g811
sg15
I01
sbsg16
(iid3_node
node
p815
(dp816
g2
g138
sg8
g811
sg4
(iid3_node
node
p817
(dp818
g14
I1
sg8
g815
sg15
I01
sbsg16
(iid3_node
node
p819
(dp820
g2
g38
sg8
g815
sg4
(iid3_node
node
p821
(dp822
g14
I1
sg8
g819
sg15
I01
sbsg16
(iid3_node
node
p823
(dp824
g14
I0
sg8
g819
sg15
I01
sbsg46
(lp825
(lp826
g50
ag50
ag49
ag50
ag49
ag49
ag50
ag49
ag49
ag50
ag49
ag50
ag49
ag50
ag49
ag49
ag50
ag50
ag49
ag50
ag50
aasg15
I01
sg51
(lp827
(lp828
g49
ag50
ag50
ag50
ag49
ag49
ag49
ag49
ag50
ag49
ag49
ag50
ag49
ag50
ag49
ag49
ag49
ag50
ag49
ag50
ag49
aa(lp829
g50
ag50
ag49
ag49
ag49
ag49
ag50
ag49
ag50
ag50
ag49
ag50
ag49
ag50
ag49
ag49
ag49
ag50
ag50
ag50
ag49
aasg14
I0
sbsg46
(lp830
(lp831
g50
ag50
ag49
ag50
ag49
ag49
ag50
ag49
ag50
ag49
ag49
ag49
ag50
ag50
ag50
ag49
ag50
ag50
ag50
ag50
ag50
aa(lp832
g50
ag49
ag50
ag49
ag49
ag49
ag49
ag49
ag50
ag50
ag49
ag50
ag50
ag50
ag49
ag49
ag49
ag50
ag49
ag50
ag50
aa(lp833
g50
ag50
ag49
ag50
ag49
ag49
ag49
ag49
ag50
ag49
ag49
ag50
ag50
ag50
ag50
ag49
ag49
ag50
ag49
ag50
ag50
aasg15
I00
sg51
(lp834
g828
ag826
ag829
asg14
I1
sbsg46
(lp835
(lp836
g49
ag50
ag49
ag50
ag50
ag49
ag49
ag49
ag50
ag49
ag50
ag49
ag49
ag50
ag50
ag50
ag50
ag50
ag49
ag50
ag49
aa(lp837
g50
ag50
ag49
ag50
ag50
ag49
ag49
ag49
ag50
ag49
ag50
ag50
ag50
ag50
ag50
ag50
ag49
ag50
ag50
ag50
ag49
aa(lp838
g49
ag50
ag50
ag50
ag50
ag49
ag49
ag49
ag50
ag50
ag50
ag50
ag49
ag50
ag50
ag50
ag49
ag50
ag49
ag50
ag49
aa(lp839
g49
ag50
ag50
ag50
ag50
ag49
ag49
ag49
ag49
ag49
ag50
ag49
ag49
ag50
ag49
ag49
ag49
ag50
ag49
ag50
ag49
aa(lp840
g50
ag49
ag49
ag49
ag49
ag49
ag50
ag49
ag49
ag49
ag50
ag49
ag50
ag50
ag49
ag50
ag50
ag50
ag49
ag50
ag49
aa(lp841
g50
ag50
ag49
ag50
ag50
ag49
ag50
ag49
ag49
ag50
ag50
ag49
ag49
ag50
ag49
ag50
ag49
ag50
ag49
ag50
ag49
aasg15
I01
sg51
(lp842
g831
ag828
ag826
ag832
ag829
ag833
asg14
I0
sbsg16
(iid3_node
node
p843
(dp844
g14
I0
sg8
g809
sg15
I01
sbsg46
(lp845
g831
ag836
ag828
ag837
ag838
ag839
ag826
ag840
ag832
ag841
ag829
ag833
asg15
I01
sg51
(lp846
(lp847
g50
ag50
ag49
ag49
ag49
ag49
ag50
ag49
ag50
ag49
ag49
ag49
ag50
ag49
ag49
ag50
ag49
ag50
ag49
ag50
ag49
aa(lp848
g49
ag49
ag50
ag50
ag49
ag49
ag49
ag49
ag49
ag49
ag50
ag50
ag50
ag49
ag49
ag50
ag49
ag50
ag49
ag50
ag49
aa(lp849
g49
ag50
ag50
ag50
ag49
ag49
ag50
ag49
ag49
ag49
ag50
ag50
ag50
ag49
ag50
ag49
ag50
ag50
ag49
ag50
ag49
aa(lp850
g49
ag50
ag49
ag50
ag49
ag49
ag49
ag49
ag49
ag49
ag50
ag50
ag49
ag49
ag50
ag50
ag50
ag50
ag49
ag50
ag49
aa(lp851
g50
ag49
ag50
ag50
ag49
ag49
ag50
ag49
ag49
ag49
ag50
ag50
ag49
ag49
ag50
ag49
ag50
ag50
ag50
ag50
ag49
aa(lp852
g50
ag49
ag50
ag50
ag49
ag49
ag50
ag49
ag50
ag50
ag49
ag50
ag50
ag49
ag50
ag49
ag49
ag50
ag50
ag50
ag49
aa(lp853
g49
ag50
ag49
ag50
ag49
ag49
ag50
ag49
ag50
ag50
ag49
ag50
ag49
ag49
ag50
ag49
ag50
ag50
ag50
ag50
ag49
aa(lp854
g50
ag49
ag50
ag49
ag50
ag49
ag49
ag49
ag49
ag50
ag50
ag50
ag49
ag49
ag49
ag50
ag49
ag50
ag50
ag50
ag49
aa(lp855
g50
ag49
ag49
ag49
ag49
ag49
ag49
ag49
ag49
ag50
ag49
ag49
ag50
ag49
ag49
ag50
ag49
ag50
ag49
ag50
ag49
aa(lp856
g49
ag50
ag50
ag49
ag50
ag49
ag50
ag49
ag50
ag50
ag50
ag50
ag50
ag49
ag49
ag50
ag49
ag50
ag50
ag50
ag49
aa(lp857
g49
ag50
ag49
ag50
ag49
ag49
ag49
ag49
ag49
ag50
ag49
ag49
ag50
ag49
ag50
ag50
ag50
ag50
ag49
ag50
ag49
aa(lp858
g50
ag49
ag50
ag49
ag50
ag49
ag49
ag49
ag49
ag50
ag50
ag50
ag49
ag49
ag49
ag50
ag49
ag50
ag50
ag50
ag49
aa(lp859
g49
ag49
ag50
ag49
ag49
ag49
ag50
ag49
ag49
ag49
ag49
ag50
ag49
ag49
ag49
ag49
ag50
ag50
ag50
ag50
ag49
aa(lp860
g49
ag49
ag49
ag50
ag49
ag49
ag49
ag49
ag50
ag50
ag49
ag49
ag50
ag49
ag49
ag50
ag49
ag50
ag50
ag50
ag49
aa(lp861
g49
ag49
ag50
ag49
ag49
ag49
ag49
ag49
ag49
ag50
ag49
ag50
ag50
ag49
ag49
ag50
ag49
ag50
ag49
ag50
ag49
aa(lp862
g50
ag49
ag49
ag50
ag49
ag49
ag50
ag49
ag50
ag50
ag50
ag50
ag50
ag49
ag49
ag49
ag49
ag50
ag50
ag50
ag49
aa(lp863
g50
ag50
ag50
ag49
ag50
ag49
ag49
ag49
ag49
ag49
ag49
ag49
ag49
ag49
ag50
ag50
ag50
ag50
ag50
ag50
ag49
aa(lp864
g50
ag49
ag50
ag50
ag50
ag49
ag49
ag49
ag49
ag50
ag50
ag50
ag50
ag49
ag49
ag49
ag49
ag50
ag49
ag50
ag49
aasg14
I0
sbsg16
(iid3_node
node
p865
(dp866
g2
g348
sg8
g807
sg4
(iid3_node
node
p867
(dp868
g2
g138
sg8
g865
sg4
(iid3_node
node
p869
(dp870
g2
g82
sg8
g867
sg4
(iid3_node
node
p871
(dp872
g14
I1
sg8
g869
sg15
I01
sbsg16
(iid3_node
node
p873
(dp874
g2
g11
sg8
g869
sg4
(iid3_node
node
p875
(dp876
g14
I1
sg8
g873
sg15
I01
sbsg16
(iid3_node
node
p877
(dp878
g2
g19
sg8
g873
sg4
(iid3_node
node
p879
(dp880
g14
I0
sg8
g877
sg15
I01
sbsg16
(iid3_node
node
p881
(dp882
g2
g38
sg8
g877
sg4
(iid3_node
node
p883
(dp884
g14
I1
sg8
g881
sg15
I01
sbsg16
(iid3_node
node
p885
(dp886
g14
I0
sg8
g881
sg15
I01
sbsg46
(lp887
(lp888
g49
ag50
ag49
ag49
ag50
ag49
ag50
ag49
ag50
ag49
ag49
ag49
ag50
ag50
ag49
ag50
ag50
ag49
ag49
ag50
ag50
aasg15
I01
sg51
(lp889
(lp890
g49
ag50
ag49
ag49
ag50
ag49
ag50
ag49
ag50
ag50
ag49
ag50
ag50
ag49
ag49
ag49
ag49
ag49
ag49
ag50
ag49
aasg14
I1
sbsg46
(lp891
(lp892
g49
ag50
ag49
ag49
ag50
ag49
ag49
ag49
ag50
ag49
ag50
ag49
ag50
ag50
ag49
ag50
ag50
ag49
ag50
ag50
ag49
aasg15
I00
sg51
(lp893
g890
ag888
asg14
I0
sbsg46
(lp894
(lp895
g49
ag49
ag50
ag49
ag50
ag49
ag49
ag49
ag50
ag50
ag50
ag50
ag50
ag49
ag50
ag50
ag50
ag49
ag49
ag50
ag50
aa(lp896
g49
ag49
ag50
ag49
ag50
ag49
ag49
ag49
ag50
ag50
ag50
ag50
ag50
ag49
ag49
ag50
ag49
ag49
ag50
ag50
ag50
aa(lp897
g49
ag50
ag50
ag49
ag50
ag49
ag50
ag49
ag50
ag50
ag49
ag49
ag50
ag50
ag50
ag50
ag50
ag49
ag50
ag50
ag50
aasg15
I01
sg51
(lp898
g890
ag892
ag888
asg14
I1
sbsg46
(lp899
(lp900
g50
ag49
ag50
ag50
ag49
ag49
ag50
ag49
ag50
ag49
ag50
ag49
ag50
ag50
ag50
ag50
ag50
ag49
ag50
ag50
ag50
aa(lp901
g50
ag49
ag49
ag50
ag49
ag49
ag49
ag49
ag50
ag49
ag49
ag50
ag50
ag50
ag49
ag49
ag49
ag49
ag50
ag50
ag50
aa(lp902
g49
ag50
ag49
ag50
ag50
ag49
ag50
ag49
ag50
ag49
ag49
ag49
ag50
ag50
ag49
ag50
ag50
ag49
ag49
ag50
ag50
aa(lp903
g49
ag49
ag50
ag50
ag50
ag49
ag49
ag49
ag50
ag50
ag50
ag50
ag50
ag49
ag49
ag50
ag49
ag49
ag50
ag50
ag50
aa(lp904
g49
ag49
ag50
ag50
ag50
ag49
ag49
ag49
ag50
ag50
ag50
ag50
ag50
ag49
ag50
ag50
ag49
ag49
ag49
ag50
ag50
aa(lp905
g50
ag50
ag49
ag50
ag49
ag49
ag50
ag49
ag50
ag49
ag49
ag49
ag50
ag50
ag49
ag49
ag49
ag49
ag50
ag50
ag50
aa(lp906
g49
ag49
ag50
ag50
ag50
ag49
ag49
ag49
ag50
ag50
ag49
ag50
ag50
ag49
ag49
ag50
ag50
ag49
ag50
ag50
ag50
aa(lp907
g50
ag49
ag50
ag50
ag49
ag49
ag49
ag49
ag50
ag49
ag49
ag50
ag50
ag50
ag49
ag49
ag50
ag49
ag50
ag50
ag50
aa(lp908
g49
ag49
ag50
ag50
ag50
ag49
ag49
ag49
ag50
ag49
ag49
ag50
ag50
ag49
ag49
ag50
ag50
ag49
ag49
ag50
ag50
aasg15
I01
sg51
(lp909
g890
ag895
ag896
ag892
ag897
ag888
asg14
I1
sbsg16
(iid3_node
node
p910
(dp911
g2
g41
sg8
g867
sg4
(iid3_node
node
p912
(dp913
g2
g133
sg8
g910
sg4
(iid3_node
node
p914
(dp915
g2
g79
sg8
g912
sg4
(iid3_node
node
p916
(dp917
g14
I0
sg8
g914
sg15
I01
sbsg16
(iid3_node
node
p918
(dp919
g14
I1
sg8
g914
sg15
I01
sbsg46
(lp920
(lp921
g49
ag49
ag50
ag49
ag49
ag49
ag50
ag49
ag50
ag49
ag49
ag50
ag49
ag50
ag49
ag50
ag50
ag49
ag50
ag50
ag49
aasg15
I01
sg51
(lp922
(lp923
g49
ag50
ag49
ag49
ag50
ag49
ag50
ag49
ag50
ag50
ag50
ag49
ag49
ag50
ag49
ag50
ag50
ag49
ag49
ag50
ag50
aa(lp924
g49
ag49
ag50
ag50
ag50
ag49
ag50
ag49
ag50
ag50
ag50
ag49
ag49
ag50
ag50
ag50
ag50
ag49
ag49
ag50
ag50
aa(lp925
g50
ag50
ag50
ag50
ag49
ag49
ag49
ag49
ag50
ag50
ag50
ag49
ag49
ag50
ag50
ag50
ag50
ag49
ag49
ag50
ag50
aa(lp926
g50
ag49
ag50
ag50
ag49
ag49
ag49
ag49
ag50
ag49
ag50
ag49
ag49
ag50
ag50
ag50
ag50
ag49
ag50
ag50
ag50
aa(lp927
g49
ag50
ag50
ag49
ag50
ag49
ag49
ag49
ag50
ag49
ag50
ag49
ag49
ag50
ag50
ag50
ag50
ag49
ag50
ag50
ag50
aa(lp928
g49
ag50
ag49
ag50
ag50
ag49
ag50
ag49
ag50
ag50
ag49
ag49
ag49
ag50
ag50
ag50
ag49
ag49
ag50
ag50
ag50
aa(lp929
g49
ag50
ag49
ag49
ag50
ag49
ag50
ag49
ag50
ag49
ag50
ag49
ag49
ag50
ag49
ag50
ag50
ag49
ag50
ag50
ag50
aasg14
I1
sbsg16
(iid3_node
node
p930
(dp931
g2
g38
sg8
g912
sg4
(iid3_node
node
p932
(dp933
g14
I0
sg8
g930
sg15
I01
sbsg16
(iid3_node
node
p934
(dp935
g2
g79
sg8
g930
sg4
(iid3_node
node
p936
(dp937
g14
I1
sg8
g934
sg15
I01
sbsg16
(iid3_node
node
p938
(dp939
g14
I0
sg8
g934
sg15
I01
sbsg46
(lp940
(lp941
g49
ag49
ag50
ag50
ag50
ag49
ag50
ag49
ag50
ag50
ag50
ag50
ag49
ag49
ag49
ag50
ag49
ag49
ag50
ag50
ag50
aa(lp942
g49
ag49
ag49
ag50
ag50
ag49
ag50
ag49
ag50
ag49
ag50
ag50
ag49
ag49
ag50
ag50
ag49
ag49
ag49
ag50
ag50
aasg15
I01
sg51
(lp943
(lp944
g49
ag50
ag49
ag49
ag50
ag49
ag49
ag49
ag50
ag49
ag50
ag49
ag49
ag49
ag49
ag50
ag49
ag49
ag49
ag50
ag49
aasg14
I1
sbsg46
(lp945
(lp946
g50
ag50
ag50
ag49
ag49
ag49
ag50
ag49
ag50
ag49
ag50
ag50
ag49
ag49
ag50
ag50
ag50
ag49
ag50
ag50
ag49
aa(lp947
g50
ag49
ag49
ag50
ag49
ag49
ag49
ag49
ag50
ag50
ag50
ag50
ag49
ag49
ag50
ag50
ag50
ag49
ag50
ag50
ag49
aasg15
I00
sg51
(lp948
g944
ag941
ag942
asg14
I0
sbsg46
(lp949
g921
ag923
ag924
ag925
ag926
ag927
ag928
ag929
asg15
I01
sg51
(lp950
g944
ag941
ag946
ag947
ag942
asg14
I1
sbsg16
(iid3_node
node
p951
(dp952
g14
I0
sg8
g910
sg15
I01
sbsg46
(lp953
g921
ag923
ag944
ag941
ag924
ag946
ag925
ag926
ag927
ag928
ag947
ag942
ag929
asg15
I01
sg51
(lp954
(lp955
g50
ag49
ag50
ag50
ag49
ag49
ag50
ag49
ag50
ag50
ag50
ag49
ag49
ag49
ag49
ag49
ag50
ag49
ag50
ag50
ag49
aa(lp956
g49
ag49
ag49
ag49
ag50
ag49
ag50
ag49
ag50
ag50
ag49
ag49
ag49
ag49
ag49
ag49
ag49
ag49
ag50
ag50
ag49
aa(lp957
g49
ag49
ag49
ag50
ag49
ag49
ag49
ag49
ag50
ag49
ag50
ag50
ag49
ag50
ag49
ag49
ag50
ag49
ag50
ag50
ag49
aasg14
I1
sbsg46
(lp958
g890
ag900
ag901
ag895
ag896
ag902
ag903
ag892
ag904
ag905
ag897
ag906
ag888
ag907
ag908
asg15
I01
sg51
(lp959
g921
ag923
ag944
ag941
ag924
ag946
ag925
ag926
ag927
ag955
ag928
ag947
ag942
ag956
ag957
ag929
asg14
I1
sbsg16
(iid3_node
node
p960
(dp961
g2
g138
sg8
g865
sg4
(iid3_node
node
p962
(dp963
g14
I0
sg8
g960
sg15
I01
sbsg16
(iid3_node
node
p964
(dp965
g2
g22
sg8
g960
sg4
(iid3_node
node
p966
(dp967
g2
g7
sg8
g964
sg4
(iid3_node
node
p968
(dp969
g14
I0
sg8
g966
sg15
I01
sbsg16
(iid3_node
node
p970
(dp971
g2
g19
sg8
g966
sg4
(iid3_node
node
p972
(dp973
g14
I1
sg8
g970
sg15
I01
sbsg16
(iid3_node
node
p974
(dp975
g14
I0
sg8
g970
sg15
I01
sbsg46
(lp976
(lp977
g50
ag50
ag50
ag50
ag49
ag49
ag50
ag49
ag49
ag49
ag49
ag50
ag49
ag50
ag50
ag49
ag49
ag49
ag50
ag50
ag50
aa(lp978
g50
ag50
ag50
ag49
ag49
ag49
ag50
ag49
ag49
ag49
ag50
ag50
ag49
ag50
ag50
ag49
ag50
ag49
ag50
ag50
ag50
aasg15
I01
sg51
(lp979
(lp980
g50
ag49
ag50
ag50
ag49
ag49
ag49
ag49
ag49
ag49
ag49
ag50
ag49
ag50
ag49
ag49
ag49
ag49
ag49
ag50
ag49
aasg14
I1
sbsg46
(lp981
(lp982
g50
ag50
ag49
ag50
ag49
ag49
ag49
ag49
ag49
ag50
ag50
ag49
ag49
ag49
ag50
ag49
ag49
ag49
ag49
ag50
ag49
aa(lp983
g50
ag49
ag50
ag50
ag50
ag49
ag49
ag49
ag49
ag50
ag49
ag49
ag49
ag50
ag50
ag49
ag49
ag49
ag50
ag50
ag49
aa(lp984
g50
ag50
ag49
ag49
ag50
ag49
ag50
ag49
ag49
ag50
ag50
ag49
ag49
ag49
ag49
ag50
ag49
ag49
ag50
ag50
ag49
aa(lp985
g50
ag49
ag49
ag49
ag49
ag49
ag49
ag49
ag49
ag50
ag49
ag50
ag49
ag50
ag50
ag49
ag49
ag49
ag50
ag50
ag49
aa(lp986
g50
ag49
ag50
ag49
ag50
ag49
ag49
ag49
ag49
ag50
ag50
ag50
ag49
ag49
ag50
ag50
ag50
ag49
ag50
ag50
ag49
aasg15
I00
sg51
(lp987
g977
ag978
ag980
asg14
I0
sbsg16
(iid3_node
node
p988
(dp989
g2
g27
sg8
g964
sg4
(iid3_node
node
p990
(dp991
g14
I1
sg8
g988
sg15
I01
sbsg16
(iid3_node
node
p992
(dp993
g14
I0
sg8
g988
sg15
I01
sbsg46
(lp994
(lp995
g49
ag49
ag50
ag49
ag50
ag49
ag49
ag49
ag49
ag50
ag49
ag50
ag49
ag49
ag49
ag50
ag50
ag49
ag49
ag50
ag50
aa(lp996
g49
ag50
ag49
ag49
ag50
ag49
ag50
ag49
ag49
ag49
ag49
ag50
ag49
ag49
ag50
ag50
ag49
ag49
ag50
ag50
ag50
aa(lp997
g49
ag49
ag49
ag50
ag50
ag49
ag50
ag49
ag49
ag49
ag50
ag50
ag49
ag49
ag50
ag50
ag50
ag49
ag50
ag50
ag50
aa(lp998
g49
ag49
ag49
ag50
ag50
ag49
ag50
ag49
ag49
ag49
ag49
ag49
ag49
ag50
ag49
ag50
ag49
ag49
ag50
ag50
ag50
aa(lp999
g49
ag49
ag50
ag49
ag50
ag49
ag50
ag49
ag49
ag49
ag50
ag50
ag49
ag49
ag50
ag50
ag49
ag49
ag50
ag50
ag50
aa(lp1000
g49
ag49
ag49
ag49
ag50
ag49
ag50
ag49
ag49
ag49
ag49
ag50
ag49
ag49
ag50
ag50
ag49
ag49
ag50
ag50
ag50
aasg15
I01
sg51
(lp1001
(lp1002
g49
ag49
ag50
ag49
ag49
ag49
ag50
ag49
ag49
ag49
ag50
ag50
ag49
ag49
ag50
ag50
ag49
ag49
ag50
ag50
ag49
aasg14
I1
sbsg46
(lp1003
g982
ag983
ag984
ag977
ag985
ag986
ag978
ag980
asg15
I00
sg51
(lp1004
g995
ag996
ag997
ag998
ag999
ag1000
ag1002
asg14
I1
sbsg46
(lp1005
(lp1006
g49
ag49
ag49
ag50
ag49
ag49
ag50
ag49
ag49
ag49
ag49
ag50
ag50
ag49
ag50
ag50
ag49
ag49
ag49
ag50
ag49
aa(lp1007
g50
ag50
ag49
ag50
ag49
ag49
ag49
ag49
ag49
ag50
ag49
ag50
ag50
ag50
ag49
ag49
ag49
ag49
ag50
ag50
ag49
aa(lp1008
g50
ag49
ag49
ag49
ag50
ag49
ag49
ag49
ag49
ag49
ag49
ag50
ag50
ag50
ag50
ag50
ag49
ag49
ag49
ag50
ag49
aa(lp1009
g49
ag50
ag49
ag49
ag50
ag49
ag50
ag49
ag49
ag49
ag49
ag50
ag50
ag49
ag50
ag50
ag50
ag49
ag49
ag50
ag49
aa(lp1010
g50
ag49
ag50
ag50
ag49
ag49
ag50
ag49
ag49
ag49
ag50
ag50
ag50
ag50
ag49
ag49
ag50
ag49
ag50
ag50
ag49
aa(lp1011
g50
ag49
ag50
ag49
ag49
ag49
ag50
ag49
ag49
ag50
ag49
ag50
ag50
ag49
ag49
ag50
ag49
ag49
ag50
ag50
ag49
aasg15
I00
sg51
(lp1012
g995
ag982
ag983
ag984
ag996
ag977
ag997
ag998
ag999
ag985
ag986
ag978
ag1000
ag980
ag1002
asg14
I0
sbsg46
(lp1013
g921
ag890
ag923
ag900
ag944
ag901
ag941
ag924
ag895
ag946
ag896
ag902
ag925
ag903
ag926
ag927
ag892
ag955
ag928
ag947
ag942
ag956
ag957
ag904
ag905
ag897
ag906
ag888
ag929
ag907
ag908
asg15
I00
sg51
(lp1014
g995
ag1006
ag982
ag1007
ag1008
ag983
ag984
ag996
ag977
ag1009
ag1010
ag1011
ag997
ag998
ag999
ag985
ag986
ag978
ag1000
ag980
ag1002
asg14
I1
sbsg46
(lp1015
g831
ag847
ag848
ag836
ag828
ag837
ag849
ag838
ag850
ag839
ag851
ag826
ag852
ag853
ag854
ag840
ag855
ag856
ag857
ag858
ag859
ag860
ag861
ag832
ag862
ag863
ag841
ag829
ag833
ag864
asg15
I00
sg51
(lp1016
g995
ag921
ag890
ag1006
ag923
ag982
ag900
ag944
ag901
ag1007
ag941
ag1008
ag924
ag983
ag984
ag895
ag996
ag946
ag896
ag902
ag925
ag977
ag903
ag1009
ag1010
ag926
ag927
ag892
ag1011
ag997
ag955
ag998
ag928
ag999
ag985
ag947
ag942
ag956
ag957
ag986
ag904
ag905
ag978
ag897
ag906
ag888
ag929
ag907
ag1000
ag980
ag908
ag1002
asg14
I0
sbsg46
(lp1017
(lp1018
g50
ag49
ag50
ag49
ag50
ag50
ag50
ag49
ag49
ag49
ag50
ag49
ag49
ag50
ag50
ag50
ag50
ag50
ag50
ag50
ag49
aa(lp1019
g50
ag49
ag49
ag50
ag50
ag50
ag50
ag49
ag50
ag50
ag50
ag50
ag50
ag50
ag50
ag50
ag50
ag50
ag49
ag50
ag49
aa(lp1020
g50
ag49
ag50
ag50
ag49
ag50
ag49
ag49
ag50
ag50
ag50
ag49
ag49
ag49
ag49
ag50
ag49
ag49
ag49
ag50
ag49
aa(lp1021
g49
ag50
ag49
ag50
ag50
ag50
ag49
ag49
ag49
ag49
ag49
ag49
ag50
ag50
ag49
ag50
ag50
ag50
ag50
ag50
ag49
aa(lp1022
g50
ag49
ag49
ag49
ag49
ag50
ag50
ag49
ag49
ag49
ag50
ag49
ag50
ag49
ag50
ag50
ag49
ag50
ag49
ag50
ag49
aa(lp1023
g49
ag49
ag50
ag49
ag50
ag50
ag49
ag49
ag49
ag50
ag49
ag50
ag50
ag50
ag50
ag50
ag49
ag50
ag50
ag50
ag49
aa(lp1024
g49
ag50
ag50
ag50
ag49
ag50
ag50
ag49
ag49
ag49
ag49
ag49
ag49
ag49
ag49
ag49
ag50
ag49
ag49
ag50
ag49
aa(lp1025
g49
ag50
ag50
ag49
ag49
ag50
ag50
ag49
ag50
ag50
ag50
ag49
ag50
ag50
ag50
ag49
ag50
ag50
ag49
ag50
ag49
aa(lp1026
g49
ag49
ag50
ag50
ag50
ag50
ag49
ag49
ag49
ag50
ag49
ag49
ag50
ag50
ag50
ag49
ag50
ag50
ag49
ag50
ag49
aa(lp1027
g49
ag50
ag49
ag49
ag49
ag50
ag50
ag49
ag50
ag49
ag50
ag49
ag49
ag49
ag50
ag50
ag50
ag49
ag49
ag50
ag49
aa(lp1028
g49
ag49
ag49
ag50
ag49
ag50
ag49
ag49
ag49
ag49
ag49
ag50
ag49
ag50
ag50
ag50
ag50
ag49
ag49
ag50
ag49
aa(lp1029
g49
ag50
ag49
ag49
ag50
ag50
ag50
ag49
ag49
ag50
ag50
ag50
ag50
ag49
ag50
ag50
ag50
ag49
ag49
ag50
ag49
aa(lp1030
g49
ag50
ag50
ag49
ag49
ag50
ag50
ag49
ag50
ag50
ag49
ag49
ag50
ag50
ag49
ag50
ag50
ag50
ag50
ag50
ag49
aa(lp1031
g50
ag49
ag49
ag49
ag49
ag50
ag50
ag49
ag50
ag49
ag50
ag50
ag50
ag49
ag49
ag49
ag50
ag50
ag50
ag50
ag49
aa(lp1032
g50
ag50
ag50
ag49
ag50
ag50
ag49
ag49
ag50
ag50
ag50
ag50
ag50
ag49
ag50
ag50
ag50
ag50
ag50
ag50
ag49
aa(lp1033
g50
ag49
ag49
ag50
ag50
ag50
ag49
ag49
ag49
ag49
ag49
ag50
ag50
ag49
ag50
ag50
ag50
ag49
ag49
ag50
ag49
aa(lp1034
g49
ag50
ag50
ag49
ag50
ag50
ag49
ag49
ag50
ag50
ag49
ag50
ag49
ag49
ag50
ag50
ag50
ag49
ag50
ag50
ag49
aa(lp1035
g49
ag49
ag50
ag49
ag49
ag50
ag50
ag49
ag49
ag49
ag50
ag50
ag50
ag50
ag49
ag50
ag49
ag49
ag49
ag50
ag49
aa(lp1036
g49
ag50
ag49
ag50
ag49
ag50
ag50
ag49
ag50
ag50
ag50
ag49
ag49
ag49
ag50
ag50
ag49
ag49
ag50
ag50
ag49
aa(lp1037
g49
ag50
ag49
ag50
ag50
ag50
ag49
ag49
ag50
ag49
ag49
ag50
ag49
ag49
ag49
ag49
ag49
ag49
ag49
ag50
ag49
aa(lp1038
g49
ag49
ag50
ag49
ag50
ag50
ag50
ag49
ag49
ag50
ag50
ag49
ag50
ag50
ag49
ag49
ag49
ag50
ag50
ag50
ag49
aa(lp1039
g49
ag50
ag50
ag50
ag50
ag50
ag49
ag49
ag49
ag49
ag50
ag50
ag50
ag50
ag49
ag49
ag49
ag49
ag50
ag50
ag49
aa(lp1040
g50
ag49
ag49
ag49
ag49
ag50
ag50
ag49
ag49
ag50
ag49
ag50
ag50
ag50
ag49
ag50
ag50
ag49
ag49
ag50
ag49
aa(lp1041
g50
ag49
ag50
ag49
ag49
ag50
ag50
ag49
ag49
ag50
ag49
ag50
ag50
ag50
ag50
ag50
ag50
ag50
ag50
ag50
ag49
aa(lp1042
g49
ag49
ag49
ag50
ag50
ag50
ag50
ag49
ag49
ag49
ag49
ag49
ag50
ag49
ag49
ag50
ag49
ag50
ag49
ag50
ag49
aa(lp1043
g50
ag50
ag49
ag50
ag49
ag50
ag50
ag49
ag50
ag50
ag50
ag49
ag50
ag50
ag50
ag49
ag50
ag49
ag49
ag50
ag49
aa(lp1044
g50
ag49
ag49
ag49
ag49
ag50
ag50
ag49
ag50
ag50
ag49
ag49
ag49
ag50
ag50
ag50
ag49
ag50
ag50
ag50
ag49
aa(lp1045
g50
ag49
ag50
ag50
ag49
ag50
ag49
ag49
ag50
ag50
ag50
ag50
ag49
ag49
ag49
ag49
ag49
ag49
ag50
ag50
ag49
aa(lp1046
g50
ag50
ag49
ag50
ag50
ag50
ag49
ag49
ag50
ag49
ag50
ag50
ag49
ag49
ag50
ag50
ag50
ag50
ag49
ag50
ag49
aa(lp1047
g49
ag49
ag50
ag49
ag50
ag50
ag50
ag49
ag50
ag50
ag50
ag49
ag49
ag49
ag50
ag50
ag50
ag50
ag50
ag50
ag49
aa(lp1048
g49
ag49
ag50
ag50
ag50
ag50
ag49
ag49
ag50
ag50
ag49
ag50
ag49
ag49
ag50
ag50
ag49
ag49
ag50
ag50
ag49
aa(lp1049
g49
ag49
ag49
ag50
ag49
ag50
ag49
ag49
ag49
ag50
ag50
ag49
ag50
ag49
ag50
ag50
ag49
ag50
ag50
ag50
ag49
aa(lp1050
g50
ag50
ag49
ag49
ag49
ag50
ag49
ag49
ag49
ag49
ag49
ag50
ag50
ag49
ag50
ag49
ag49
ag50
ag50
ag50
ag49
aa(lp1051
g49
ag50
ag49
ag50
ag49
ag50
ag49
ag49
ag50
ag49
ag49
ag49
ag49
ag49
ag49
ag49
ag49
ag49
ag49
ag50
ag49
aa(lp1052
g49
ag50
ag49
ag49
ag49
ag50
ag49
ag49
ag49
ag50
ag50
ag49
ag49
ag49
ag49
ag50
ag49
ag50
ag49
ag50
ag49
aa(lp1053
g50
ag50
ag49
ag49
ag50
ag50
ag49
ag49
ag50
ag49
ag50
ag49
ag49
ag50
ag50
ag50
ag49
ag49
ag49
ag50
ag49
aa(lp1054
g50
ag49
ag50
ag50
ag50
ag50
ag49
ag49
ag49
ag49
ag49
ag49
ag50
ag50
ag50
ag50
ag49
ag49
ag50
ag50
ag49
aa(lp1055
g49
ag50
ag50
ag49
ag50
ag50
ag49
ag49
ag49
ag49
ag49
ag49
ag49
ag50
ag50
ag49
ag49
ag49
ag49
ag50
ag49
aa(lp1056
g50
ag49
ag50
ag50
ag50
ag50
ag50
ag49
ag49
ag49
ag49
ag50
ag49
ag49
ag49
ag49
ag49
ag50
ag50
ag50
ag49
aa(lp1057
g50
ag49
ag50
ag49
ag50
ag50
ag50
ag49
ag49
ag49
ag50
ag50
ag49
ag49
ag50
ag50
ag50
ag49
ag49
ag50
ag49
aa(lp1058
g50
ag50
ag49
ag49
ag49
ag50
ag50
ag49
ag49
ag50
ag50
ag50
ag50
ag50
ag49
ag49
ag50
ag49
ag49
ag50
ag49
aa(lp1059
g49
ag49
ag49
ag50
ag49
ag50
ag49
ag49
ag50
ag50
ag49
ag49
ag49
ag50
ag50
ag50
ag49
ag49
ag50
ag50
ag49
aa(lp1060
g50
ag50
ag50
ag49
ag50
ag50
ag49
ag49
ag50
ag50
ag50
ag49
ag49
ag49
ag49
ag49
ag49
ag49
ag50
ag50
ag49
aa(lp1061
g49
ag49
ag50
ag49
ag50
ag50
ag49
ag49
ag50
ag49
ag49
ag49
ag49
ag49
ag49
ag49
ag50
ag50
ag50
ag50
ag49
aa(lp1062
g49
ag50
ag49
ag49
ag50
ag50
ag49
ag49
ag50
ag50
ag50
ag49
ag49
ag50
ag50
ag49
ag49
ag50
ag50
ag50
ag49
aa(lp1063
g50
ag49
ag49
ag49
ag50
ag50
ag49
ag49
ag49
ag50
ag49
ag50
ag49
ag50
ag50
ag49
ag49
ag49
ag50
ag50
ag49
aasg15
I00
sg51
(lp1064
g831
ag847
ag995
ag848
ag921
ag890
ag836
ag1006
ag828
ag923
ag982
ag837
ag849
ag900
ag944
ag901
ag1007
ag838
ag941
ag1008
ag924
ag850
ag983
ag984
ag895
ag996
ag839
ag851
ag946
ag896
ag902
ag826
ag925
ag852
ag977
ag903
ag1009
ag1010
ag926
ag927
ag892
ag1011
ag997
ag853
ag955
ag854
ag998
ag928
ag840
ag855
ag999
ag856
ag985
ag857
ag947
ag858
ag859
ag942
ag860
ag861
ag832
ag956
ag862
ag957
ag986
ag863
ag841
ag904
ag905
ag978
ag897
ag906
ag888
ag829
ag929
ag907
ag833
ag1000
ag864
ag980
ag908
ag1002
asg14
I0
sbsg16
(iid3_node
node
p1065
(dp1066
g2
g41
sg8
g801
sg4
(iid3_node
node
p1067
(dp1068
g2
g22
sg8
g1065
sg4
(iid3_node
node
p1069
(dp1070
g2
g133
sg8
g1067
sg4
(iid3_node
node
p1071
(dp1072
g2
g79
sg8
g1069
sg4
(iid3_node
node
p1073
(dp1074
g14
I0
sg8
g1071
sg15
I01
sbsg16
(iid3_node
node
p1075
(dp1076
g2
g27
sg8
g1071
sg4
(iid3_node
node
p1077
(dp1078
g14
I0
sg8
g1075
sg15
I01
sbsg16
(iid3_node
node
p1079
(dp1080
g2
g357
sg8
g1075
sg4
(iid3_node
node
p1081
(dp1082
g14
I1
sg8
g1079
sg15
I01
sbsg16
(iid3_node
node
p1083
(dp1084
g2
g171
sg8
g1079
sg4
(iid3_node
node
p1085
(dp1086
g14
I0
sg8
g1083
sg15
I01
sbsg16
(iid3_node
node
p1087
(dp1088
g2
g301
sg8
g1083
sg4
(iid3_node
node
p1089
(dp1090
g2
g7
sg8
g1087
sg4
(iid3_node
node
p1091
(dp1092
g14
I1
sg8
g1089
sg15
I01
sbsg16
(iid3_node
node
p1093
(dp1094
g2
g19
sg8
g1089
sg4
(iid3_node
node
p1095
(dp1096
g14
I0
sg8
g1093
sg15
I01
sbsg16
(iid3_node
node
p1097
(dp1098
g2
g147
sg8
g1093
sg16
(iid3_node
node
p1099
(dp1100
g2
g38
sg8
g1097
sg16
(iid3_node
node
p1101
(dp1102
g2
g138
sg8
g1099
sg16
(iid3_node
node
p1103
(dp1104
g2
g348
sg8
g1101
sg4
(iid3_node
node
p1105
(dp1106
g2
g30
sg8
g1103
sg4
(iid3_node
node
p1107
(dp1108
g2
g539
sg8
g1105
sg16
(iid3_node
node
p1109
(dp1110
g2
g82
sg8
g1107
sg16
(iid3_node
node
p1111
(dp1112
g2
g11
sg8
g1109
sg16
(iid3_node
node
p1113
(dp1114
g14
I1
sg8
g1111
sg15
I01
sbsg46
(lp1115
sg51
(lp1116
(lp1117
g50
ag50
ag49
ag49
ag49
ag49
ag50
ag49
ag50
ag49
ag49
ag49
ag49
ag50
ag49
ag50
ag49
ag49
ag49
ag49
ag49
aa(lp1118
g50
ag50
ag49
ag49
ag49
ag49
ag50
ag49
ag50
ag49
ag49
ag49
ag49
ag50
ag49
ag50
ag49
ag49
ag49
ag49
ag50
aasg14
I1
sbsg46
(lp1119
sg51
(lp1120
g1117
ag1118
asg14
I1
sbsg46
(lp1121
sg51
(lp1122
g1117
ag1118
asg14
I1
sbsg46
(lp1123
g1117
ag1118
asg51
(lp1124
sg14
I1
sbsg46
(lp1125
g1117
ag1118
asg51
(lp1126
sg14
I1
sbsg46
(lp1127
sg15
I01
sg51
(lp1128
g1117
ag1118
asg14
I1
sbsg46
(lp1129
sg15
I01
sg51
(lp1130
g1117
ag1118
asg14
I1
sbsg46
(lp1131
sg15
I01
sg51
(lp1132
g1117
ag1118
asg14
I1
sbsg46
(lp1133
(lp1134
g50
ag50
ag49
ag50
ag49
ag50
ag50
ag49
ag49
ag49
ag49
ag49
ag49
ag50
ag49
ag50
ag50
ag50
ag50
ag49
ag49
aasg15
I00
sg51
(lp1135
g1117
ag1118
asg14
I0
sbsg46
(lp1136
(lp1137
g50
ag50
ag49
ag49
ag49
ag50
ag50
ag49
ag50
ag50
ag49
ag49
ag50
ag50
ag49
ag50
ag50
ag50
ag49
ag49
ag50
aa(lp1138
g50
ag50
ag49
ag49
ag49
ag49
ag50
ag49
ag50
ag50
ag49
ag49
ag49
ag50
ag49
ag50
ag50
ag49
ag49
ag49
ag50
aasg15
I01
sg51
(lp1139
g1134
ag1117
ag1118
asg14
I1
sbsg16
(iid3_node
node
p1140
(dp1141
g14
I1
sg8
g1087
sg15
I01
sbsg46
(lp1142
g1137
ag1134
ag1117
ag1138
ag1118
asg15
I01
sg51
(lp1143
(lp1144
g50
ag49
ag49
ag49
ag49
ag50
ag50
ag49
ag49
ag49
ag49
ag49
ag49
ag50
ag49
ag50
ag49
ag50
ag50
ag49
ag50
aa(lp1145
g50
ag49
ag50
ag49
ag49
ag50
ag50
ag49
ag49
ag49
ag49
ag49
ag49
ag50
ag49
ag50
ag49
ag50
ag50
ag49
ag50
aa(lp1146
g50
ag49
ag49
ag50
ag49
ag49
ag50
ag49
ag50
ag49
ag49
ag49
ag50
ag50
ag49
ag50
ag50
ag49
ag50
ag49
ag50
aasg14
I1
sbsg46
(lp1147
(lp1148
g50
ag49
ag50
ag49
ag49
ag50
ag49
ag49
ag50
ag49
ag50
ag49
ag50
ag50
ag49
ag50
ag50
ag49
ag49
ag49
ag49
aa(lp1149
g50
ag49
ag50
ag50
ag49
ag49
ag50
ag49
ag49
ag50
ag50
ag49
ag50
ag50
ag49
ag50
ag49
ag50
ag49
ag49
ag49
aa(lp1150
g50
ag49
ag49
ag49
ag49
ag49
ag50
ag49
ag50
ag50
ag50
ag49
ag50
ag50
ag49
ag50
ag50
ag49
ag50
ag49
ag49
aasg15
I01
sg51
(lp1151
g1137
ag1144
ag1134
ag1117
ag1138
ag1145
ag1118
ag1146
asg14
I1
sbsg46
(lp1152
(lp1153
g50
ag49
ag49
ag49
ag49
ag49
ag49
ag49
ag49
ag49
ag50
ag49
ag49
ag50
ag50
ag50
ag49
ag49
ag50
ag49
ag50
aa(lp1154
g50
ag49
ag50
ag50
ag49
ag49
ag50
ag49
ag49
ag50
ag50
ag49
ag49
ag50
ag50
ag50
ag49
ag49
ag49
ag49
ag50
aa(lp1155
g50
ag50
ag50
ag49
ag49
ag49
ag50
ag49
ag50
ag50
ag49
ag49
ag49
ag50
ag50
ag50
ag50
ag49
ag49
ag49
ag50
aa(lp1156
g50
ag50
ag49
ag50
ag49
ag50
ag49
ag49
ag50
ag50
ag50
ag49
ag49
ag50
ag50
ag50
ag49
ag50
ag49
ag49
ag50
aa(lp1157
g50
ag49
ag50
ag50
ag49
ag49
ag50
ag49
ag50
ag49
ag50
ag49
ag49
ag50
ag50
ag50
ag49
ag49
ag49
ag49
ag50
aa(lp1158
g50
ag49
ag50
ag49
ag49
ag49
ag50
ag49
ag49
ag49
ag50
ag49
ag49
ag50
ag50
ag50
ag50
ag49
ag50
ag49
ag50
aasg15
I01
sg51
(lp1159
g1148
ag1149
ag1137
ag1144
ag1134
ag1117
ag1138
ag1145
ag1118
ag1146
ag1150
asg14
I1
sbsg46
(lp1160
(lp1161
g50
ag49
ag49
ag49
ag50
ag49
ag50
ag49
ag50
ag50
ag49
ag49
ag49
ag50
ag49
ag50
ag49
ag49
ag49
ag49
ag49
aa(lp1162
g50
ag50
ag50
ag49
ag50
ag49
ag50
ag49
ag50
ag49
ag49
ag49
ag49
ag50
ag50
ag50
ag49
ag50
ag49
ag49
ag49
aasg15
I00
sg51
(lp1163
g1148
ag1153
ag1154
ag1155
ag1149
ag1137
ag1144
ag1134
ag1117
ag1156
ag1138
ag1145
ag1118
ag1157
ag1158
ag1146
ag1150
asg14
I1
sbsg46
(lp1164
(lp1165
g50
ag49
ag49
ag49
ag49
ag49
ag49
ag49
ag49
ag50
ag49
ag50
ag50
ag50
ag49
ag50
ag50
ag49
ag49
ag49
ag49
aa(lp1166
g50
ag49
ag49
ag50
ag49
ag49
ag50
ag49
ag50
ag49
ag50
ag50
ag50
ag50
ag50
ag50
ag50
ag50
ag49
ag49
ag49
aa(lp1167
g50
ag50
ag50
ag50
ag49
ag50
ag49
ag49
ag50
ag49
ag49
ag50
ag49
ag50
ag50
ag50
ag49
ag49
ag49
ag49
ag49
aa(lp1168
g50
ag49
ag49
ag50
ag49
ag50
ag49
ag49
ag50
ag49
ag50
ag50
ag49
ag50
ag50
ag50
ag49
ag49
ag50
ag49
ag49
aa(lp1169
g50
ag50
ag49
ag50
ag49
ag49
ag50
ag49
ag49
ag50
ag49
ag50
ag50
ag50
ag49
ag50
ag50
ag50
ag49
ag49
ag49
aasg15
I00
sg51
(lp1170
g1148
ag1153
ag1154
ag1161
ag1155
ag1149
ag1137
ag1144
ag1134
ag1117
ag1156
ag1138
ag1145
ag1118
ag1162
ag1157
ag1158
ag1146
ag1150
asg14
I1
sbsg16
(iid3_node
node
p1171
(dp1172
g14
I0
sg8
g1069
sg15
I01
sbsg46
(lp1173
g1148
ag1153
ag1154
ag1161
ag1165
ag1155
ag1149
ag1137
ag1166
ag1167
ag1144
ag1168
ag1134
ag1117
ag1156
ag1138
ag1145
ag1118
ag1169
ag1162
ag1157
ag1158
ag1146
ag1150
asg15
I00
sg51
(lp1174
(lp1175
g50
ag50
ag49
ag50
ag50
ag49
ag49
ag49
ag49
ag50
ag49
ag49
ag50
ag49
ag50
ag50
ag50
ag49
ag49
ag49
ag49
aa(lp1176
g50
ag50
ag50
ag50
ag49
ag49
ag50
ag49
ag50
ag49
ag50
ag49
ag50
ag49
ag49
ag50
ag50
ag50
ag49
ag49
ag49
aa(lp1177
g50
ag50
ag50
ag50
ag49
ag50
ag50
ag49
ag49
ag50
ag49
ag50
ag50
ag49
ag50
ag50
ag49
ag50
ag49
ag49
ag49
aa(lp1178
g50
ag49
ag50
ag49
ag50
ag50
ag50
ag49
ag49
ag50
ag50
ag50
ag49
ag49
ag50
ag50
ag49
ag50
ag50
ag49
ag49
aa(lp1179
g50
ag49
ag49
ag50
ag50
ag49
ag49
ag49
ag49
ag50
ag50
ag49
ag49
ag49
ag49
ag50
ag49
ag50
ag50
ag49
ag49
aa(lp1180
g50
ag49
ag50
ag50
ag50
ag50
ag50
ag49
ag49
ag50
ag50
ag49
ag49
ag49
ag50
ag50
ag49
ag49
ag49
ag49
ag49
aa(lp1181
g50
ag50
ag50
ag50
ag50
ag49
ag50
ag49
ag49
ag50
ag49
ag50
ag50
ag49
ag49
ag50
ag49
ag49
ag49
ag49
ag49
aa(lp1182
g50
ag50
ag50
ag50
ag50
ag50
ag49
ag49
ag50
ag49
ag50
ag49
ag49
ag49
ag50
ag50
ag49
ag49
ag49
ag49
ag49
aa(lp1183
g50
ag50
ag50
ag50
ag49
ag49
ag50
ag49
ag50
ag49
ag50
ag49
ag49
ag49
ag49
ag50
ag50
ag50
ag49
ag49
ag49
aa(lp1184
g50
ag49
ag49
ag50
ag49
ag50
ag50
ag49
ag50
ag50
ag49
ag49
ag50
ag49
ag49
ag50
ag50
ag50
ag50
ag49
ag49
aa(lp1185
g50
ag49
ag49
ag50
ag50
ag50
ag49
ag49
ag49
ag50
ag49
ag49
ag50
ag49
ag49
ag50
ag49
ag49
ag50
ag49
ag49
aasg14
I0
sbsg16
(iid3_node
node
p1186
(dp1187
g2
g19
sg8
g1067
sg4
(iid3_node
node
p1188
(dp1189
g2
g133
sg8
g1186
sg4
(iid3_node
node
p1190
(dp1191
g2
g79
sg8
g1188
sg4
(iid3_node
node
p1192
(dp1193
g14
I0
sg8
g1190
sg15
I01
sbsg16
(iid3_node
node
p1194
(dp1195
g2
g30
sg8
g1190
sg4
(iid3_node
node
p1196
(dp1197
g14
I1
sg8
g1194
sg15
I01
sbsg16
(iid3_node
node
p1198
(dp1199
g2
g171
sg8
g1194
sg4
(iid3_node
node
p1200
(dp1201
g2
g147
sg8
g1198
sg4
(iid3_node
node
p1202
(dp1203
g2
g38
sg8
g1200
sg4
(iid3_node
node
p1204
(dp1205
g14
I0
sg8
g1202
sg15
I01
sbsg16
(iid3_node
node
p1206
(dp1207
g14
I1
sg8
g1202
sg15
I01
sbsg46
(lp1208
(lp1209
g49
ag49
ag49
ag49
ag50
ag50
ag49
ag49
ag50
ag50
ag50
ag49
ag50
ag50
ag49
ag50
ag50
ag50
ag50
ag49
ag49
aasg15
I01
sg51
(lp1210
(lp1211
g49
ag50
ag49
ag49
ag50
ag50
ag49
ag49
ag50
ag50
ag50
ag49
ag49
ag50
ag49
ag50
ag49
ag50
ag50
ag49
ag50
aasg14
I1
sbsg16
(iid3_node
node
p1212
(dp1213
g14
I1
sg8
g1200
sg15
I01
sbsg46
(lp1214
g1211
ag1209
asg15
I01
sg51
(lp1215
(lp1216
g49
ag50
ag49
ag49
ag50
ag50
ag49
ag49
ag50
ag50
ag50
ag49
ag50
ag50
ag49
ag50
ag50
ag49
ag50
ag49
ag50
aa(lp1217
g49
ag50
ag50
ag49
ag50
ag49
ag49
ag49
ag50
ag49
ag50
ag49
ag50
ag50
ag50
ag50
ag50
ag49
ag50
ag49
ag50
aa(lp1218
g49
ag50
ag50
ag50
ag50
ag50
ag49
ag49
ag50
ag49
ag50
ag49
ag49
ag50
ag50
ag50
ag49
ag49
ag50
ag49
ag50
aa(lp1219
g49
ag50
ag50
ag50
ag50
ag50
ag49
ag49
ag50
ag50
ag50
ag49
ag49
ag50
ag50
ag50
ag50
ag49
ag50
ag49
ag50
aa(lp1220
g49
ag49
ag50
ag49
ag50
ag50
ag49
ag49
ag49
ag50
ag50
ag49
ag49
ag50
ag49
ag50
ag49
ag49
ag50
ag49
ag50
aa(lp1221
g49
ag50
ag49
ag50
ag50
ag50
ag49
ag49
ag50
ag49
ag50
ag49
ag50
ag50
ag49
ag50
ag50
ag49
ag50
ag49
ag50
aasg14
I1
sbsg16
(iid3_node
node
p1222
(dp1223
g14
I0
sg8
g1198
sg15
I01
sbsg46
(lp1224
g1216
ag1217
ag1218
ag1211
ag1219
ag1220
ag1221
ag1209
asg15
I00
sg51
(lp1225
(lp1226
g49
ag50
ag49
ag49
ag50
ag50
ag49
ag49
ag50
ag49
ag49
ag49
ag49
ag50
ag49
ag50
ag49
ag49
ag50
ag49
ag49
aasg14
I1
sbsg46
(lp1227
(lp1228
g49
ag49
ag49
ag50
ag50
ag50
ag50
ag49
ag50
ag49
ag49
ag49
ag50
ag50
ag50
ag50
ag49
ag50
ag50
ag49
ag50
aa(lp1229
g49
ag49
ag49
ag50
ag50
ag49
ag50
ag49
ag49
ag50
ag49
ag49
ag49
ag50
ag49
ag50
ag49
ag49
ag50
ag49
ag50
aa(lp1230
g49
ag49
ag50
ag49
ag50
ag49
ag50
ag49
ag50
ag49
ag49
ag49
ag50
ag50
ag49
ag50
ag49
ag49
ag50
ag49
ag50
aa(lp1231
g49
ag49
ag49
ag49
ag50
ag50
ag50
ag49
ag49
ag50
ag50
ag49
ag49
ag50
ag49
ag50
ag49
ag50
ag50
ag49
ag50
aa(lp1232
g49
ag49
ag49
ag50
ag50
ag49
ag50
ag49
ag49
ag50
ag50
ag49
ag49
ag50
ag49
ag50
ag50
ag49
ag50
ag49
ag50
aa(lp1233
g49
ag50
ag49
ag49
ag50
ag50
ag50
ag49
ag50
ag50
ag50
ag49
ag50
ag50
ag50
ag50
ag49
ag50
ag50
ag49
ag50
aa(lp1234
g49
ag49
ag49
ag49
ag50
ag49
ag50
ag49
ag50
ag50
ag50
ag49
ag50
ag50
ag50
ag50
ag50
ag49
ag50
ag49
ag50
aasg15
I00
sg51
(lp1235
g1216
ag1226
ag1217
ag1218
ag1211
ag1219
ag1220
ag1221
ag1209
asg14
I1
sbsg46
(lp1236
(lp1237
g49
ag49
ag49
ag49
ag49
ag49
ag50
ag49
ag49
ag49
ag50
ag50
ag49
ag50
ag49
ag50
ag49
ag50
ag50
ag49
ag49
aa(lp1238
g49
ag50
ag50
ag50
ag50
ag49
ag49
ag49
ag50
ag50
ag49
ag50
ag49
ag50
ag49
ag50
ag49
ag49
ag50
ag49
ag49
aa(lp1239
g49
ag50
ag49
ag49
ag49
ag49
ag50
ag49
ag50
ag49
ag50
ag50
ag50
ag50
ag49
ag50
ag50
ag49
ag50
ag49
ag49
aasg15
I00
sg51
(lp1240
g1228
ag1229
ag1230
ag1231
ag1232
ag1216
ag1226
ag1217
ag1218
ag1211
ag1219
ag1233
ag1234
ag1220
ag1221
ag1209
asg14
I1
sbsg16
(iid3_node
node
p1241
(dp1242
g14
I1
sg8
g1188
sg15
I01
sbsg46
(lp1243
g1228
ag1229
ag1230
ag1231
ag1232
ag1216
ag1226
ag1217
ag1218
ag1211
ag1237
ag1219
ag1238
ag1239
ag1233
ag1234
ag1220
ag1221
ag1209
asg15
I00
sg51
(lp1244
(lp1245
g49
ag49
ag50
ag50
ag49
ag50
ag50
ag49
ag49
ag50
ag49
ag50
ag49
ag49
ag49
ag50
ag49
ag50
ag50
ag49
ag50
aa(lp1246
g49
ag49
ag50
ag49
ag50
ag49
ag50
ag49
ag50
ag49
ag50
ag50
ag50
ag49
ag50
ag50
ag50
ag49
ag50
ag49
ag50
aa(lp1247
g49
ag49
ag49
ag49
ag50
ag50
ag50
ag49
ag49
ag49
ag50
ag50
ag49
ag49
ag50
ag50
ag49
ag50
ag50
ag49
ag50
aa(lp1248
g49
ag49
ag50
ag49
ag50
ag49
ag49
ag49
ag50
ag49
ag49
ag50
ag49
ag49
ag50
ag50
ag49
ag49
ag50
ag49
ag50
aa(lp1249
g49
ag49
ag49
ag50
ag50
ag49
ag49
ag49
ag49
ag49
ag49
ag50
ag49
ag49
ag49
ag50
ag50
ag49
ag50
ag49
ag50
aa(lp1250
g49
ag49
ag50
ag49
ag50
ag50
ag50
ag49
ag49
ag50
ag49
ag50
ag49
ag49
ag50
ag50
ag49
ag49
ag50
ag49
ag50
aa(lp1251
g49
ag50
ag49
ag49
ag50
ag50
ag49
ag49
ag50
ag49
ag49
ag50
ag50
ag49
ag49
ag50
ag50
ag49
ag50
ag49
ag50
aa(lp1252
g49
ag50
ag49
ag50
ag49
ag50
ag49
ag49
ag50
ag50
ag49
ag50
ag50
ag49
ag49
ag50
ag50
ag50
ag50
ag49
ag50
aa(lp1253
g49
ag49
ag50
ag49
ag50
ag50
ag49
ag49
ag49
ag50
ag50
ag50
ag49
ag49
ag49
ag50
ag49
ag50
ag50
ag49
ag50
aa(lp1254
g49
ag50
ag49
ag49
ag50
ag49
ag49
ag49
ag49
ag49
ag50
ag50
ag49
ag49
ag50
ag50
ag49
ag49
ag50
ag49
ag50
aa(lp1255
g49
ag49
ag50
ag50
ag50
ag49
ag50
ag49
ag50
ag50
ag50
ag50
ag49
ag49
ag50
ag50
ag49
ag49
ag50
ag49
ag50
aa(lp1256
g49
ag49
ag50
ag49
ag49
ag50
ag49
ag49
ag50
ag49
ag49
ag50
ag50
ag49
ag49
ag50
ag49
ag50
ag50
ag49
ag50
aa(lp1257
g49
ag49
ag49
ag49
ag50
ag49
ag49
ag49
ag50
ag50
ag49
ag50
ag50
ag49
ag49
ag50
ag50
ag49
ag50
ag49
ag50
aa(lp1258
g49
ag50
ag49
ag50
ag50
ag50
ag50
ag49
ag49
ag50
ag49
ag50
ag49
ag49
ag49
ag50
ag50
ag50
ag50
ag49
ag50
aa(lp1259
g49
ag50
ag49
ag49
ag50
ag50
ag50
ag49
ag50
ag49
ag50
ag50
ag50
ag49
ag49
ag50
ag49
ag50
ag50
ag49
ag50
aa(lp1260
g49
ag49
ag49
ag50
ag49
ag50
ag49
ag49
ag49
ag50
ag49
ag50
ag49
ag49
ag49
ag50
ag49
ag50
ag50
ag49
ag50
aasg14
I1
sbsg16
(iid3_node
node
p1261
(dp1262
g2
g171
sg8
g1186
sg4
(iid3_node
node
p1263
(dp1264
g2
g27
sg8
g1261
sg4
(iid3_node
node
p1265
(dp1266
g2
g301
sg8
g1263
sg4
(iid3_node
node
p1267
(dp1268
g2
g348
sg8
g1265
sg4
(iid3_node
node
p1269
(dp1270
g2
g7
sg8
g1267
sg4
(iid3_node
node
p1271
(dp1272
g2
g79
sg8
g1269
sg4
(iid3_node
node
p1273
(dp1274
g14
I0
sg8
g1271
sg15
I01
sbsg16
(iid3_node
node
p1275
(dp1276
g14
I1
sg8
g1271
sg15
I01
sbsg46
(lp1277
(lp1278
g49
ag50
ag50
ag49
ag50
ag49
ag49
ag49
ag50
ag50
ag50
ag50
ag49
ag49
ag49
ag50
ag49
ag49
ag49
ag49
ag49
aa(lp1279
g49
ag50
ag49
ag49
ag50
ag50
ag50
ag49
ag50
ag50
ag50
ag50
ag49
ag50
ag50
ag50
ag50
ag50
ag49
ag49
ag49
aasg15
I00
sg51
(lp1280
(lp1281
g49
ag50
ag50
ag49
ag50
ag50
ag49
ag49
ag50
ag50
ag50
ag49
ag49
ag50
ag50
ag50
ag50
ag49
ag49
ag49
ag50
aasg14
I0
sbsg16
(iid3_node
node
p1282
(dp1283
g14
I1
sg8
g1269
sg15
I01
sbsg46
(lp1284
g1278
ag1279
ag1281
asg15
I01
sg51
(lp1285
(lp1286
g49
ag50
ag49
ag49
ag50
ag50
ag50
ag49
ag50
ag49
ag50
ag50
ag49
ag49
ag50
ag50
ag49
ag50
ag49
ag49
ag50
aa(lp1287
g49
ag50
ag50
ag49
ag50
ag49
ag50
ag49
ag50
ag49
ag50
ag49
ag49
ag50
ag50
ag50
ag50
ag49
ag49
ag49
ag50
aa(lp1288
g49
ag50
ag49
ag50
ag50
ag50
ag49
ag49
ag50
ag49
ag50
ag50
ag50
ag49
ag49
ag50
ag49
ag50
ag49
ag49
ag50
aasg14
I1
sbsg16
(iid3_node
node
p1289
(dp1290
g14
I0
sg8
g1267
sg15
I01
sbsg46
(lp1291
g1278
ag1286
ag1279
ag1287
ag1281
ag1288
asg15
I00
sg51
(lp1292
(lp1293
g49
ag50
ag50
ag49
ag50
ag50
ag50
ag49
ag49
ag49
ag50
ag49
ag50
ag50
ag50
ag50
ag50
ag49
ag49
ag49
ag49
aa(lp1294
g49
ag50
ag49
ag49
ag50
ag49
ag50
ag49
ag49
ag49
ag50
ag50
ag49
ag49
ag49
ag50
ag49
ag49
ag49
ag49
ag49
aa(lp1295
g49
ag50
ag50
ag49
ag50
ag49
ag49
ag49
ag49
ag49
ag50
ag49
ag50
ag50
ag50
ag50
ag50
ag50
ag49
ag49
ag49
aa(lp1296
g49
ag50
ag50
ag50
ag50
ag49
ag50
ag49
ag49
ag50
ag50
ag50
ag49
ag50
ag50
ag50
ag50
ag50
ag49
ag49
ag49
aasg14
I0
sbsg16
(iid3_node
node
p1297
(dp1298
g2
g30
sg8
g1265
sg4
(iid3_node
node
p1299
(dp1300
g2
g147
sg8
g1297
sg4
(iid3_node
node
p1301
(dp1302
g14
I0
sg8
g1299
sg15
I01
sbsg16
(iid3_node
node
p1303
(dp1304
g14
I1
sg8
g1299
sg15
I01
sbsg46
(lp1305
(lp1306
g49
ag49
ag50
ag50
ag50
ag50
ag50
ag49
ag50
ag49
ag50
ag49
ag49
ag50
ag50
ag50
ag49
ag50
ag49
ag49
ag49
aasg51
(lp1307
(lp1308
g49
ag49
ag50
ag49
ag50
ag49
ag50
ag49
ag50
ag50
ag50
ag50
ag50
ag49
ag50
ag50
ag49
ag49
ag49
ag49
ag50
aasg14
I1
sbsg16
(iid3_node
node
p1309
(dp1310
g14
I1
sg8
g1297
sg15
I01
sbsg46
(lp1311
g1308
ag1306
asg15
I01
sg51
(lp1312
(lp1313
g49
ag49
ag50
ag49
ag50
ag50
ag49
ag49
ag50
ag49
ag50
ag49
ag50
ag50
ag49
ag50
ag49
ag50
ag49
ag49
ag50
aa(lp1314
g49
ag49
ag49
ag49
ag50
ag49
ag49
ag49
ag49
ag49
ag50
ag49
ag49
ag50
ag49
ag50
ag50
ag49
ag49
ag49
ag50
aa(lp1315
g49
ag49
ag49
ag50
ag50
ag50
ag49
ag49
ag50
ag49
ag50
ag49
ag49
ag50
ag50
ag50
ag49
ag50
ag49
ag49
ag50
aa(lp1316
g49
ag49
ag50
ag50
ag50
ag50
ag49
ag49
ag49
ag49
ag50
ag50
ag49
ag49
ag49
ag50
ag49
ag49
ag49
ag49
ag50
aasg14
I1
sbsg46
(lp1317
g1278
ag1286
ag1293
ag1294
ag1295
ag1279
ag1296
ag1287
ag1281
ag1288
asg15
I01
sg51
(lp1318
g1313
ag1308
ag1314
ag1315
ag1306
ag1316
asg14
I1
sbsg16
(iid3_node
node
p1319
(dp1320
g14
I0
sg8
g1263
sg15
I01
sbsg46
(lp1321
g1313
ag1278
ag1286
ag1308
ag1293
ag1314
ag1315
ag1306
ag1294
ag1295
ag1279
ag1296
ag1287
ag1281
ag1288
ag1316
asg15
I00
sg51
(lp1322
(lp1323
g49
ag49
ag50
ag49
ag49
ag49
ag49
ag49
ag49
ag49
ag50
ag50
ag49
ag49
ag50
ag50
ag49
ag49
ag49
ag49
ag49
aa(lp1324
g49
ag50
ag50
ag49
ag49
ag50
ag49
ag49
ag50
ag50
ag50
ag50
ag50
ag50
ag49
ag50
ag50
ag50
ag49
ag49
ag49
aa(lp1325
g49
ag49
ag49
ag50
ag49
ag50
ag49
ag49
ag50
ag50
ag50
ag50
ag50
ag50
ag50
ag50
ag50
ag49
ag49
ag49
ag49
aa(lp1326
g49
ag50
ag49
ag49
ag49
ag49
ag49
ag49
ag50
ag49
ag50
ag50
ag49
ag49
ag50
ag50
ag49
ag49
ag49
ag49
ag49
aa(lp1327
g49
ag49
ag49
ag50
ag49
ag49
ag50
ag49
ag50
ag50
ag50
ag50
ag49
ag50
ag50
ag50
ag49
ag49
ag49
ag49
ag49
aa(lp1328
g49
ag49
ag49
ag49
ag49
ag49
ag49
ag49
ag49
ag49
ag50
ag49
ag49
ag50
ag50
ag50
ag50
ag50
ag49
ag49
ag49
aasg14
I0
sbsg16
(iid3_node
node
p1329
(dp1330
g2
g38
sg8
g1261
sg4
(iid3_node
node
p1331
(dp1332
g14
I1
sg8
g1329
sg15
I01
sbsg16
(iid3_node
node
p1333
(dp1334
g2
g138
sg8
g1329
sg4
(iid3_node
node
p1335
(dp1336
g14
I0
sg8
g1333
sg15
I01
sbsg16
(iid3_node
node
p1337
(dp1338
g2
g357
sg8
g1333
sg4
(iid3_node
node
p1339
(dp1340
g2
g539
sg8
g1337
sg4
(iid3_node
node
p1341
(dp1342
g2
g147
sg8
g1339
sg4
(iid3_node
node
p1343
(dp1344
g14
I0
sg8
g1341
sg15
I01
sbsg16
(iid3_node
node
p1345
(dp1346
g2
g133
sg8
g1341
sg4
(iid3_node
node
p1347
(dp1348
g14
I0
sg8
g1345
sg15
I01
sbsg16
(iid3_node
node
p1349
(dp1350
g14
I1
sg8
g1345
sg15
I01
sbsg46
(lp1351
(lp1352
g49
ag50
ag50
ag50
ag49
ag50
ag49
ag49
ag49
ag50
ag49
ag50
ag49
ag50
ag50
ag50
ag49
ag49
ag49
ag49
ag49
aasg51
(lp1353
(lp1354
g49
ag49
ag50
ag50
ag50
ag50
ag49
ag49
ag49
ag50
ag49
ag50
ag49
ag49
ag50
ag50
ag49
ag49
ag49
ag49
ag50
aasg14
I1
sbsg46
(lp1355
(lp1356
g49
ag49
ag50
ag49
ag50
ag50
ag50
ag49
ag50
ag50
ag49
ag49
ag49
ag49
ag50
ag50
ag49
ag50
ag49
ag49
ag49
aasg51
(lp1357
g1354
ag1352
asg14
I0
sbsg16
(iid3_node
node
p1358
(dp1359
g14
I1
sg8
g1339
sg15
I01
sbsg46
(lp1360
g1354
ag1356
ag1352
asg51
(lp1361
(lp1362
g49
ag49
ag50
ag49
ag50
ag49
ag50
ag49
ag49
ag50
ag49
ag49
ag49
ag50
ag50
ag50
ag49
ag49
ag49
ag49
ag50
aa(lp1363
g49
ag49
ag49
ag50
ag50
ag49
ag50
ag49
ag50
ag49
ag49
ag50
ag49
ag49
ag50
ag50
ag49
ag49
ag49
ag49
ag50
aasg14
I1
sbsg16
(iid3_node
node
p1364
(dp1365
g14
I1
sg8
g1337
sg15
I01
sbsg46
(lp1366
g1362
ag1354
ag1356
ag1352
ag1363
asg15
I01
sg51
(lp1367
(lp1368
g49
ag49
ag50
ag49
ag50
ag49
ag50
ag49
ag49
ag50
ag49
ag49
ag49
ag50
ag49
ag50
ag49
ag49
ag49
ag49
ag50
aa(lp1369
g49
ag50
ag49
ag50
ag49
ag50
ag50
ag49
ag50
ag50
ag49
ag49
ag49
ag50
ag49
ag50
ag49
ag50
ag49
ag49
ag50
aa(lp1370
g49
ag49
ag50
ag49
ag49
ag50
ag49
ag49
ag50
ag50
ag49
ag50
ag49
ag49
ag49
ag50
ag49
ag50
ag49
ag49
ag50
aasg14
I1
sbsg46
(lp1371
(lp1372
g49
ag49
ag49
ag50
ag49
ag49
ag49
ag49
ag50
ag50
ag49
ag49
ag50
ag50
ag49
ag50
ag49
ag49
ag49
ag49
ag49
aa(lp1373
g49
ag49
ag50
ag49
ag49
ag49
ag50
ag49
ag49
ag50
ag49
ag49
ag50
ag49
ag49
ag50
ag49
ag49
ag49
ag49
ag49
aasg15
I01
sg51
(lp1374
g1368
ag1369
ag1370
ag1362
ag1354
ag1356
ag1352
ag1363
asg14
I1
sbsg46
(lp1375
(lp1376
g49
ag50
ag49
ag49
ag49
ag50
ag50
ag49
ag50
ag50
ag49
ag49
ag50
ag49
ag49
ag50
ag50
ag50
ag49
ag49
ag50
aa(lp1377
g49
ag50
ag49
ag49
ag49
ag50
ag50
ag49
ag50
ag50
ag49
ag49
ag49
ag50
ag50
ag50
ag50
ag50
ag49
ag49
ag50
aa(lp1378
g49
ag50
ag49
ag50
ag49
ag50
ag49
ag49
ag49
ag49
ag49
ag50
ag49
ag49
ag49
ag50
ag50
ag50
ag49
ag49
ag50
aa(lp1379
g49
ag50
ag49
ag49
ag50
ag50
ag50
ag49
ag50
ag49
ag49
ag49
ag50
ag50
ag50
ag50
ag50
ag49
ag49
ag49
ag50
aa(lp1380
g49
ag50
ag49
ag50
ag50
ag50
ag49
ag49
ag50
ag49
ag49
ag50
ag49
ag49
ag49
ag50
ag50
ag50
ag49
ag49
ag50
aa(lp1381
g49
ag50
ag49
ag50
ag50
ag50
ag50
ag49
ag50
ag50
ag49
ag50
ag49
ag49
ag49
ag50
ag50
ag49
ag49
ag49
ag50
aasg15
I01
sg51
(lp1382
g1368
ag1369
ag1370
ag1362
ag1372
ag1354
ag1356
ag1352
ag1363
ag1373
asg14
I1
sbsg46
(lp1383
g1313
ag1278
ag1286
ag1323
ag1308
ag1293
ag1324
ag1325
ag1314
ag1315
ag1306
ag1294
ag1295
ag1279
ag1296
ag1287
ag1281
ag1326
ag1327
ag1328
ag1288
ag1316
asg15
I01
sg51
(lp1384
g1376
ag1368
ag1369
ag1377
ag1378
ag1370
ag1362
ag1372
ag1379
ag1354
ag1356
ag1380
ag1352
ag1363
ag1373
ag1381
asg14
I1
sbsg46
(lp1385
g1228
ag1229
ag1230
ag1231
ag1232
ag1216
ag1226
ag1245
ag1246
ag1247
ag1217
ag1218
ag1211
ag1237
ag1248
ag1249
ag1250
ag1251
ag1252
ag1253
ag1254
ag1255
ag1256
ag1219
ag1238
ag1257
ag1239
ag1258
ag1233
ag1234
ag1259
ag1260
ag1220
ag1221
ag1209
asg15
I00
sg51
(lp1386
g1376
ag1368
ag1313
ag1278
ag1286
ag1323
ag1369
ag1377
ag1308
ag1293
ag1378
ag1324
ag1325
ag1314
ag1315
ag1306
ag1370
ag1362
ag1294
ag1295
ag1279
ag1296
ag1372
ag1287
ag1379
ag1354
ag1356
ag1281
ag1326
ag1380
ag1327
ag1352
ag1363
ag1373
ag1328
ag1288
ag1316
ag1381
asg14
I1
sbsg46
(lp1387
g1148
ag1153
ag1154
ag1161
ag1165
ag1175
ag1155
ag1149
ag1137
ag1166
ag1176
ag1167
ag1177
ag1144
ag1168
ag1134
ag1178
ag1179
ag1117
ag1156
ag1138
ag1145
ag1118
ag1169
ag1162
ag1180
ag1157
ag1181
ag1182
ag1183
ag1158
ag1184
ag1146
ag1185
ag1150
asg15
I00
sg51
(lp1388
g1376
ag1228
ag1368
ag1229
ag1230
ag1231
ag1313
ag1232
ag1278
ag1216
ag1226
ag1245
ag1286
ag1246
ag1323
ag1369
ag1247
ag1217
ag1377
ag1218
ag1211
ag1308
ag1293
ag1378
ag1237
ag1248
ag1324
ag1249
ag1325
ag1314
ag1315
ag1250
ag1306
ag1251
ag1370
ag1362
ag1294
ag1295
ag1279
ag1296
ag1372
ag1252
ag1287
ag1379
ag1253
ag1354
ag1356
ag1254
ag1281
ag1326
ag1255
ag1256
ag1219
ag1380
ag1238
ag1327
ag1257
ag1239
ag1258
ag1352
ag1363
ag1233
ag1234
ag1259
ag1373
ag1260
ag1220
ag1328
ag1221
ag1209
ag1288
ag1316
ag1381
asg14
I1
sbsg16
(iid3_node
node
p1389
(dp1390
g2
g27
sg8
g1065
sg4
(iid3_node
node
p1391
(dp1392
g14
I0
sg8
g1389
sg15
I01
sbsg16
(iid3_node
node
p1393
(dp1394
g2
g133
sg8
g1389
sg4
(iid3_node
node
p1395
(dp1396
g2
g22
sg8
g1393
sg4
(iid3_node
node
p1397
(dp1398
g2
g171
sg8
g1395
sg4
(iid3_node
node
p1399
(dp1400
g2
g30
sg8
g1397
sg4
(iid3_node
node
p1401
(dp1402
g14
I1
sg8
g1399
sg15
I01
sbsg16
(iid3_node
node
p1403
(dp1404
g2
g147
sg8
g1399
sg4
(iid3_node
node
p1405
(dp1406
g14
I0
sg8
g1403
sg15
I01
sbsg16
(iid3_node
node
p1407
(dp1408
g2
g7
sg8
g1403
sg4
(iid3_node
node
p1409
(dp1410
g14
I1
sg8
g1407
sg15
I01
sbsg16
(iid3_node
node
p1411
(dp1412
g2
g138
sg8
g1407
sg4
(iid3_node
node
p1413
(dp1414
g14
I0
sg8
g1411
sg15
I01
sbsg16
(iid3_node
node
p1415
(dp1416
g14
I1
sg8
g1411
sg15
I01
sbsg46
(lp1417
(lp1418
g50
ag49
ag50
ag50
ag49
ag49
ag49
ag49
ag49
ag49
ag50
ag50
ag50
ag50
ag50
ag49
ag50
ag49
ag49
ag49
ag49
aasg15
I01
sg51
(lp1419
(lp1420
g50
ag50
ag50
ag49
ag49
ag49
ag49
ag49
ag49
ag49
ag50
ag50
ag49
ag50
ag50
ag49
ag50
ag49
ag49
ag49
ag50
aasg14
I1
sbsg46
(lp1421
(lp1422
g50
ag49
ag50
ag50
ag49
ag49
ag49
ag49
ag50
ag50
ag50
ag49
ag50
ag50
ag50
ag49
ag49
ag49
ag49
ag49
ag50
aa(lp1423
g50
ag49
ag50
ag50
ag49
ag49
ag49
ag49
ag50
ag50
ag50
ag49
ag49
ag50
ag50
ag49
ag50
ag49
ag49
ag49
ag50
aa(lp1424
g50
ag49
ag50
ag50
ag49
ag49
ag49
ag49
ag50
ag50
ag50
ag50
ag50
ag50
ag50
ag49
ag49
ag49
ag49
ag49
ag50
aasg15
I01
sg51
(lp1425
g1420
ag1418
asg14
I1
sbsg46
(lp1426
(lp1427
g50
ag50
ag50
ag50
ag49
ag49
ag49
ag49
ag50
ag50
ag50
ag49
ag50
ag50
ag49
ag49
ag50
ag50
ag49
ag49
ag49
aa(lp1428
g50
ag49
ag49
ag50
ag49
ag49
ag49
ag49
ag49
ag49
ag50
ag50
ag49
ag50
ag50
ag49
ag49
ag50
ag50
ag49
ag49
aasg15
I00
sg51
(lp1429
g1420
ag1422
ag1423
ag1418
ag1424
asg14
I1
sbsg46
(lp1430
(lp1431
g50
ag49
ag49
ag50
ag49
ag49
ag50
ag49
ag49
ag50
ag50
ag49
ag49
ag50
ag50
ag49
ag50
ag49
ag49
ag49
ag50
aa(lp1432
g50
ag50
ag50
ag49
ag49
ag49
ag50
ag49
ag49
ag50
ag50
ag50
ag49
ag50
ag50
ag49
ag50
ag49
ag49
ag49
ag50
aa(lp1433
g50
ag50
ag49
ag50
ag49
ag49
ag50
ag49
ag50
ag50
ag50
ag49
ag49
ag50
ag50
ag49
ag50
ag50
ag49
ag49
ag50
aa(lp1434
g50
ag50
ag49
ag49
ag49
ag49
ag50
ag49
ag50
ag49
ag50
ag50
ag49
ag50
ag50
ag49
ag50
ag50
ag50
ag49
ag50
aasg15
I00
sg51
(lp1435
g1420
ag1422
ag1423
ag1418
ag1424
ag1427
ag1428
asg14
I1
sbsg16
(iid3_node
node
p1436
(dp1437
g14
I1
sg8
g1397
sg15
I01
sbsg46
(lp1438
g1431
ag1420
ag1432
ag1422
ag1423
ag1433
ag1434
ag1418
ag1424
ag1427
ag1428
asg15
I00
sg51
(lp1439
(lp1440
g50
ag50
ag49
ag49
ag49
ag49
ag50
ag49
ag50
ag50
ag49
ag49
ag50
ag50
ag50
ag49
ag50
ag50
ag49
ag49
ag50
aa(lp1441
g50
ag49
ag49
ag49
ag49
ag49
ag50
ag49
ag49
ag49
ag49
ag49
ag49
ag50
ag49
ag49
ag49
ag50
ag50
ag49
ag50
aa(lp1442
g50
ag49
ag50
ag50
ag49
ag49
ag49
ag49
ag49
ag49
ag49
ag50
ag49
ag50
ag49
ag49
ag50
ag49
ag50
ag49
ag50
aa(lp1443
g50
ag50
ag50
ag49
ag49
ag49
ag50
ag49
ag49
ag50
ag49
ag50
ag49
ag50
ag50
ag49
ag50
ag49
ag49
ag49
ag50
aa(lp1444
g50
ag50
ag50
ag50
ag49
ag49
ag50
ag49
ag50
ag49
ag49
ag49
ag50
ag50
ag50
ag49
ag49
ag49
ag50
ag49
ag50
aa(lp1445
g50
ag50
ag50
ag50
ag49
ag49
ag49
ag49
ag50
ag50
ag49
ag50
ag50
ag50
ag50
ag49
ag50
ag49
ag49
ag49
ag50
aa(lp1446
g50
ag49
ag50
ag50
ag49
ag49
ag49
ag49
ag50
ag49
ag49
ag50
ag50
ag50
ag50
ag49
ag49
ag49
ag50
ag49
ag50
aa(lp1447
g50
ag49
ag50
ag50
ag49
ag49
ag49
ag49
ag49
ag49
ag49
ag50
ag49
ag50
ag49
ag49
ag50
ag50
ag50
ag49
ag50
aa(lp1448
g50
ag49
ag50
ag50
ag49
ag49
ag50
ag49
ag49
ag49
ag49
ag49
ag49
ag50
ag50
ag49
ag49
ag49
ag49
ag49
ag50
aasg14
I1
sbsg16
(iid3_node
node
p1449
(dp1450
g2
g11
sg8
g1395
sg4
(iid3_node
node
p1451
(dp1452
g14
I0
sg8
g1449
sg15
I01
sbsg16
(iid3_node
node
p1453
(dp1454
g2
g147
sg8
g1449
sg4
(iid3_node
node
p1455
(dp1456
g14
I1
sg8
g1453
sg15
I01
sbsg16
(iid3_node
node
p1457
(dp1458
g14
I0
sg8
g1453
sg15
I01
sbsg46
(lp1459
(lp1460
g49
ag49
ag49
ag50
ag49
ag50
ag49
ag49
ag50
ag50
ag50
ag49
ag49
ag50
ag50
ag49
ag49
ag50
ag49
ag49
ag50
aa(lp1461
g49
ag50
ag49
ag50
ag49
ag50
ag49
ag49
ag50
ag50
ag50
ag49
ag50
ag50
ag50
ag49
ag49
ag50
ag50
ag49
ag50
aa(lp1462
g49
ag50
ag49
ag49
ag49
ag50
ag50
ag49
ag50
ag49
ag50
ag49
ag50
ag50
ag50
ag49
ag50
ag50
ag49
ag49
ag50
aasg15
I00
sg51
(lp1463
(lp1464
g49
ag50
ag49
ag50
ag49
ag50
ag49
ag49
ag50
ag49
ag50
ag50
ag50
ag50
ag49
ag49
ag49
ag49
ag49
ag49
ag49
aasg14
I1
sbsg46
(lp1465
(lp1466
g49
ag50
ag50
ag50
ag49
ag50
ag49
ag49
ag50
ag49
ag50
ag50
ag50
ag50
ag50
ag49
ag50
ag49
ag50
ag49
ag49
aa(lp1467
g49
ag50
ag50
ag49
ag49
ag49
ag50
ag49
ag49
ag50
ag50
ag49
ag50
ag50
ag49
ag49
ag49
ag50
ag50
ag49
ag49
aa(lp1468
g49
ag49
ag50
ag49
ag49
ag49
ag50
ag49
ag50
ag50
ag49
ag49
ag49
ag50
ag50
ag49
ag50
ag50
ag49
ag49
ag49
aa(lp1469
g49
ag50
ag50
ag50
ag49
ag49
ag49
ag49
ag50
ag49
ag50
ag50
ag50
ag50
ag49
ag49
ag49
ag50
ag49
ag49
ag49
aasg15
I00
sg51
(lp1470
g1460
ag1461
ag1464
ag1462
asg14
I0
sbsg46
(lp1471
g1440
ag1441
ag1431
ag1442
ag1420
ag1443
ag1432
ag1444
ag1422
ag1445
ag1446
ag1423
ag1433
ag1447
ag1434
ag1418
ag1424
ag1448
ag1427
ag1428
asg15
I00
sg51
(lp1472
g1460
ag1466
ag1467
ag1461
ag1464
ag1468
ag1462
ag1469
asg14
I1
sbsg16
(iid3_node
node
p1473
(dp1474
g2
g348
sg8
g1393
sg4
(iid3_node
node
p1475
(dp1476
g2
g539
sg8
g1473
sg4
(iid3_node
node
p1477
(dp1478
g14
I1
sg8
g1475
sg15
I01
sbsg16
(iid3_node
node
p1479
(dp1480
g14
I0
sg8
g1475
sg15
I01
sbsg46
(lp1481
(lp1482
g49
ag49
ag49
ag50
ag49
ag50
ag50
ag49
ag50
ag49
ag49
ag50
ag50
ag49
ag49
ag49
ag49
ag50
ag50
ag49
ag50
aa(lp1483
g49
ag49
ag50
ag50
ag49
ag50
ag49
ag49
ag50
ag50
ag49
ag50
ag49
ag49
ag49
ag49
ag49
ag50
ag50
ag49
ag50
aa(lp1484
g49
ag50
ag49
ag49
ag49
ag50
ag50
ag49
ag50
ag49
ag50
ag50
ag49
ag49
ag50
ag49
ag49
ag50
ag49
ag49
ag50
aa(lp1485
g49
ag50
ag49
ag50
ag49
ag50
ag50
ag49
ag50
ag49
ag49
ag50
ag49
ag49
ag49
ag49
ag50
ag50
ag50
ag49
ag50
aasg15
I00
sg51
(lp1486
(lp1487
g49
ag50
ag49
ag49
ag49
ag49
ag49
ag49
ag50
ag50
ag49
ag49
ag49
ag49
ag50
ag49
ag50
ag50
ag49
ag49
ag49
aa(lp1488
g50
ag50
ag49
ag50
ag49
ag49
ag49
ag49
ag50
ag49
ag50
ag49
ag50
ag49
ag50
ag49
ag49
ag49
ag49
ag49
ag49
aa(lp1489
g50
ag50
ag50
ag49
ag49
ag49
ag49
ag49
ag50
ag50
ag50
ag50
ag49
ag49
ag50
ag49
ag49
ag50
ag49
ag49
ag49
aa(lp1490
g50
ag49
ag50
ag50
ag49
ag49
ag50
ag49
ag50
ag49
ag50
ag49
ag49
ag49
ag50
ag49
ag50
ag50
ag50
ag49
ag49
aasg14
I1
sbsg16
(iid3_node
node
p1491
(dp1492
g14
I0
sg8
g1473
sg15
I01
sbsg46
(lp1493
g1482
ag1487
ag1483
ag1484
ag1488
ag1489
ag1485
ag1490
asg15
I00
sg51
(lp1494
(lp1495
g50
ag49
ag50
ag50
ag49
ag49
ag50
ag49
ag49
ag50
ag50
ag50
ag49
ag49
ag50
ag49
ag49
ag50
ag49
ag49
ag49
aa(lp1496
g50
ag49
ag49
ag49
ag49
ag49
ag50
ag49
ag49
ag49
ag50
ag50
ag50
ag49
ag50
ag49
ag50
ag50
ag49
ag49
ag49
aa(lp1497
g49
ag49
ag50
ag49
ag49
ag50
ag50
ag49
ag49
ag50
ag50
ag50
ag49
ag49
ag49
ag49
ag50
ag49
ag49
ag49
ag49
aa(lp1498
g50
ag49
ag50
ag50
ag49
ag49
ag49
ag49
ag49
ag49
ag49
ag50
ag49
ag49
ag49
ag49
ag50
ag50
ag50
ag49
ag49
aa(lp1499
g49
ag49
ag50
ag50
ag49
ag50
ag50
ag49
ag49
ag50
ag50
ag49
ag49
ag49
ag49
ag49
ag49
ag49
ag50
ag49
ag49
aa(lp1500
g50
ag50
ag49
ag50
ag49
ag50
ag49
ag49
ag49
ag50
ag49
ag50
ag50
ag49
ag50
ag49
ag50
ag50
ag49
ag49
ag49
aa(lp1501
g49
ag49
ag49
ag50
ag49
ag49
ag49
ag49
ag49
ag49
ag50
ag50
ag50
ag49
ag49
ag49
ag49
ag50
ag49
ag49
ag49
aa(lp1502
g50
ag50
ag49
ag49
ag49
ag49
ag49
ag49
ag49
ag49
ag49
ag49
ag49
ag49
ag50
ag49
ag49
ag49
ag49
ag49
ag49
aa(lp1503
g50
ag50
ag50
ag49
ag49
ag50
ag49
ag49
ag49
ag49
ag50
ag50
ag50
ag49
ag49
ag49
ag50
ag49
ag49
ag49
ag49
aasg14
I0
sbsg46
(lp1504
g1440
ag1441
ag1431
ag1460
ag1442
ag1420
ag1443
ag1432
ag1466
ag1444
ag1422
ag1467
ag1445
ag1461
ag1446
ag1464
ag1423
ag1433
ag1447
ag1434
ag1418
ag1424
ag1468
ag1462
ag1448
ag1427
ag1469
ag1428
asg15
I00
sg51
(lp1505
g1482
ag1495
ag1496
ag1487
ag1483
ag1484
ag1497
ag1488
ag1489
ag1498
ag1499
ag1500
ag1485
ag1501
ag1502
ag1503
ag1490
asg14
I1
sbsg46
(lp1506
(lp1507
g50
ag49
ag50
ag50
ag50
ag50
ag49
ag49
ag49
ag49
ag50
ag50
ag50
ag49
ag50
ag49
ag49
ag50
ag49
ag49
ag49
aa(lp1508
g50
ag50
ag49
ag49
ag50
ag49
ag49
ag49
ag50
ag49
ag49
ag50
ag50
ag50
ag49
ag49
ag50
ag49
ag50
ag49
ag49
aa(lp1509
g49
ag49
ag50
ag49
ag50
ag49
ag50
ag49
ag50
ag49
ag49
ag49
ag50
ag50
ag50
ag49
ag49
ag49
ag49
ag49
ag49
aa(lp1510
g49
ag49
ag49
ag50
ag50
ag50
ag49
ag49
ag49
ag50
ag49
ag50
ag49
ag49
ag50
ag49
ag49
ag50
ag49
ag49
ag49
aa(lp1511
g50
ag49
ag49
ag49
ag50
ag49
ag49
ag49
ag49
ag49
ag50
ag50
ag49
ag49
ag50
ag49
ag49
ag49
ag49
ag49
ag49
aa(lp1512
g49
ag49
ag49
ag50
ag50
ag50
ag49
ag49
ag49
ag50
ag50
ag49
ag49
ag49
ag50
ag49
ag49
ag50
ag50
ag49
ag49
aa(lp1513
g49
ag50
ag50
ag50
ag50
ag50
ag49
ag49
ag49
ag49
ag50
ag49
ag49
ag49
ag49
ag49
ag50
ag50
ag50
ag49
ag49
aa(lp1514
g50
ag49
ag49
ag49
ag50
ag49
ag50
ag49
ag50
ag49
ag49
ag50
ag50
ag50
ag50
ag49
ag49
ag49
ag49
ag49
ag49
aa(lp1515
g50
ag49
ag50
ag50
ag50
ag50
ag49
ag49
ag50
ag49
ag50
ag50
ag49
ag50
ag49
ag49
ag50
ag49
ag49
ag49
ag49
aa(lp1516
g49
ag50
ag49
ag50
ag50
ag50
ag50
ag49
ag50
ag50
ag50
ag50
ag49
ag49
ag49
ag49
ag49
ag50
ag49
ag49
ag49
aa(lp1517
g50
ag49
ag49
ag50
ag50
ag49
ag50
ag49
ag50
ag49
ag49
ag50
ag50
ag50
ag49
ag49
ag49
ag50
ag50
ag49
ag49
aa(lp1518
g49
ag50
ag50
ag50
ag50
ag50
ag50
ag49
ag49
ag50
ag49
ag49
ag50
ag49
ag50
ag49
ag49
ag50
ag50
ag49
ag49
aa(lp1519
g50
ag49
ag49
ag49
ag50
ag49
ag49
ag49
ag50
ag49
ag49
ag50
ag50
ag49
ag49
ag49
ag50
ag50
ag50
ag49
ag49
aa(lp1520
g49
ag49
ag49
ag50
ag50
ag49
ag50
ag49
ag50
ag49
ag50
ag49
ag49
ag49
ag50
ag49
ag49
ag50
ag50
ag49
ag49
aa(lp1521
g50
ag49
ag49
ag50
ag50
ag49
ag49
ag49
ag50
ag50
ag50
ag49
ag50
ag49
ag50
ag49
ag49
ag50
ag50
ag49
ag49
aa(lp1522
g49
ag49
ag50
ag49
ag50
ag50
ag49
ag49
ag50
ag49
ag50
ag50
ag49
ag50
ag49
ag49
ag49
ag49
ag49
ag49
ag49
aa(lp1523
g50
ag49
ag49
ag49
ag50
ag49
ag50
ag49
ag49
ag50
ag50
ag49
ag50
ag50
ag49
ag49
ag49
ag49
ag50
ag49
ag49
aa(lp1524
g50
ag49
ag49
ag50
ag50
ag49
ag49
ag49
ag50
ag49
ag49
ag49
ag50
ag50
ag50
ag49
ag50
ag50
ag49
ag49
ag49
aa(lp1525
g49
ag50
ag50
ag50
ag50
ag49
ag49
ag49
ag50
ag49
ag50
ag49
ag50
ag50
ag49
ag49
ag49
ag50
ag50
ag49
ag49
aa(lp1526
g49
ag50
ag49
ag49
ag50
ag50
ag49
ag49
ag49
ag50
ag50
ag50
ag50
ag50
ag50
ag49
ag50
ag49
ag50
ag49
ag49
aasg15
I00
sg51
(lp1527
g1482
ag1440
ag1441
ag1495
ag1496
ag1431
ag1460
ag1442
ag1487
ag1420
ag1443
ag1483
ag1432
ag1466
ag1444
ag1422
ag1467
ag1484
ag1497
ag1445
ag1488
ag1489
ag1461
ag1446
ag1464
ag1423
ag1433
ag1447
ag1434
ag1498
ag1499
ag1418
ag1424
ag1468
ag1462
ag1500
ag1448
ag1427
ag1485
ag1501
ag1469
ag1502
ag1503
ag1428
ag1490
asg14
I0
sbsg46
(lp1528
g1376
ag1148
ag1153
ag1154
ag1161
ag1228
ag1368
ag1229
ag1165
ag1230
ag1231
ag1313
ag1232
ag1278
ag1216
ag1226
ag1245
ag1286
ag1175
ag1155
ag1246
ag1149
ag1323
ag1369
ag1247
ag1137
ag1166
ag1217
ag1377
ag1176
ag1218
ag1211
ag1308
ag1293
ag1378
ag1237
ag1248
ag1324
ag1249
ag1325
ag1314
ag1167
ag1177
ag1144
ag1315
ag1250
ag1168
ag1306
ag1251
ag1134
ag1370
ag1362
ag1294
ag1295
ag1178
ag1279
ag1296
ag1372
ag1252
ag1179
ag1287
ag1379
ag1253
ag1354
ag1356
ag1117
ag1156
ag1254
ag1138
ag1281
ag1145
ag1326
ag1255
ag1118
ag1169
ag1256
ag1162
ag1180
ag1157
ag1181
ag1219
ag1182
ag1380
ag1238
ag1327
ag1257
ag1239
ag1258
ag1183
ag1158
ag1352
ag1363
ag1184
ag1233
ag1146
ag1185
ag1234
ag1259
ag1373
ag1260
ag1220
ag1150
ag1328
ag1221
ag1209
ag1288
ag1316
ag1381
asg15
I00
sg51
(lp1529
g1507
ag1482
ag1440
ag1441
ag1508
ag1509
ag1510
ag1495
ag1511
ag1496
ag1512
ag1513
ag1514
ag1431
ag1460
ag1442
ag1515
ag1487
ag1420
ag1516
ag1443
ag1517
ag1483
ag1432
ag1466
ag1518
ag1444
ag1422
ag1467
ag1519
ag1484
ag1497
ag1445
ag1520
ag1488
ag1489
ag1461
ag1446
ag1464
ag1521
ag1423
ag1433
ag1447
ag1522
ag1434
ag1498
ag1499
ag1418
ag1523
ag1424
ag1468
ag1462
ag1500
ag1448
ag1427
ag1485
ag1501
ag1524
ag1469
ag1502
ag1503
ag1525
ag1428
ag1490
ag1526
asg14
I1
sbsg46
(lp1530
g831
ag847
ag1018
ag995
ag848
ag921
ag890
ag836
ag1006
ag1019
ag1020
ag828
ag923
ag982
ag837
ag849
ag900
ag944
ag901
ag1021
ag1022
ag1007
ag838
ag941
ag1023
ag1008
ag924
ag850
ag983
ag984
ag895
ag996
ag839
ag1024
ag851
ag1025
ag946
ag1026
ag1027
ag1028
ag1029
ag1030
ag1031
ag896
ag1032
ag902
ag1033
ag826
ag1034
ag925
ag852
ag977
ag1035
ag1036
ag903
ag1037
ag1009
ag1010
ag1038
ag926
ag927
ag892
ag1011
ag997
ag1039
ag853
ag955
ag854
ag1040
ag998
ag928
ag840
ag855
ag999
ag1041
ag856
ag985
ag857
ag1042
ag947
ag1043
ag1044
ag1045
ag1046
ag858
ag1047
ag859
ag1048
ag942
ag1049
ag860
ag861
ag1050
ag1051
ag832
ag1052
ag1053
ag1054
ag956
ag862
ag957
ag986
ag863
ag841
ag1055
ag904
ag905
ag978
ag1056
ag897
ag906
ag888
ag829
ag929
ag907
ag1057
ag833
ag1000
ag864
ag980
ag908
ag1058
ag1059
ag1060
ag1061
ag1002
ag1062
ag1063
asg15
I00
sg51
(lp1531
g1376
ag1507
ag1148
ag1153
ag1482
ag1154
ag1161
ag1440
ag1441
ag1508
ag1228
ag1368
ag1229
ag1509
ag1165
ag1230
ag1510
ag1495
ag1511
ag1231
ag1313
ag1232
ag1496
ag1278
ag1216
ag1226
ag1245
ag1512
ag1286
ag1175
ag1155
ag1513
ag1246
ag1514
ag1431
ag1460
ag1442
ag1515
ag1487
ag1149
ag1323
ag1420
ag1516
ag1443
ag1517
ag1483
ag1432
ag1369
ag1247
ag1466
ag1137
ag1518
ag1444
ag1166
ag1422
ag1217
ag1377
ag1176
ag1218
ag1467
ag1211
ag1519
ag1308
ag1293
ag1378
ag1237
ag1484
ag1248
ag1497
ag1324
ag1445
ag1520
ag1249
ag1325
ag1314
ag1488
ag1167
ag1177
ag1144
ag1315
ag1250
ag1168
ag1306
ag1251
ag1134
ag1489
ag1461
ag1370
ag1446
ag1362
ag1294
ag1295
ag1178
ag1279
ag1296
ag1372
ag1252
ag1179
ag1464
ag1287
ag1379
ag1521
ag1253
ag1423
ag1354
ag1433
ag1447
ag1522
ag1434
ag1356
ag1117
ag1156
ag1498
ag1254
ag1138
ag1499
ag1281
ag1418
ag1145
ag1326
ag1523
ag1255
ag1118
ag1169
ag1256
ag1162
ag1180
ag1157
ag1181
ag1424
ag1468
ag1219
ag1182
ag1462
ag1500
ag1380
ag1238
ag1327
ag1448
ag1427
ag1485
ag1501
ag1257
ag1239
ag1524
ag1258
ag1183
ag1158
ag1469
ag1352
ag1363
ag1184
ag1502
ag1233
ag1503
ag1146
ag1185
ag1234
ag1259
ag1373
ag1260
ag1525
ag1428
ag1220
ag1150
ag1490
ag1328
ag1221
ag1526
ag1209
ag1288
ag1316
ag1381
asg14
I0
sbsg46
(lp1532
g780
ag428
ag225
ag620
ag551
ag113
ag398
ag53
ag495
ag193
ag333
ag376
ag334
ag770
ag90
ag157
ag701
ag271
ag586
ag335
ag204
ag482
ag760
ag661
ag114
ag695
ag558
ag662
ag272
ag771
ag524
ag649
ag440
ag781
ag115
ag573
ag367
ag570
ag93
ag488
ag205
ag404
ag116
ag155
ag117
ag399
ag501
ag235
ag70
ag579
ag612
ag371
ag325
ag663
ag502
ag261
ag226
ag496
ag273
ag696
ag377
ag592
ag250
ag99
ag782
ag664
ag274
ag711
ag665
ag275
ag615
ag666
ag587
ag378
ag405
ag262
ag396
ag276
ag206
ag153
ag100
ag441
ag783
ag207
ag433
ag757
ag227
ag255
ag336
ag107
ag593
ag277
ag750
ag228
ag434
ag667
ag278
ag639
ag406
ag784
ag71
ag613
ag94
ag54
ag317
ag650
ag319
ag279
ag369
ag208
ag519
ag379
ag525
ag761
ag60
ag380
ag668
ag280
ag281
ag731
ag594
ag758
ag785
ag162
ag337
ag669
ag247
ag282
ag752
ag283
ag712
ag713
ag503
ag504
ag194
ag477
ag450
ag697
ag118
ag108
ag55
ag338
ag284
ag229
ag381
ag571
ag158
ag670
ag183
ag382
ag285
ag642
ag63
ag286
ag552
ag517
ag489
ag553
ag119
ag732
ag671
ag595
ag72
ag786
ag453
ag209
ag287
ag163
ag505
ag164
ag288
ag210
ag672
ag526
ag64
ag372
ag698
ag640
ag554
ag714
ag651
ag289
ag442
ag120
ag121
ag787
ag320
ag443
ag321
ag729
ag652
ag73
ag699
ag704
ag122
ag772
ag248
ag555
ag326
ag788
ag101
ag373
ag190
ag506
ag621
ag480
ag643
ag339
ag653
ag123
ag507
ag211
ag733
ag654
ag596
ag383
ag230
ag340
ag705
ag195
ag231
ag588
ag580
ag673
ag341
ag165
ag212
ag622
ag762
ag290
ag124
ag74
ag291
ag159
ag478
ag384
ag637
ag674
ag342
ag734
ag773
ag322
ag292
ag556
ag185
ag581
ag715
ag109
ag623
ag444
ag789
ag675
ag790
ag125
ag232
ag293
ag263
ag256
ag451
ag48
ag454
ag75
ag102
ag574
ag597
ag791
ag735
ag126
ag792
ag294
ag323
ag213
ag61
ag295
ag196
ag296
ag297
ag445
ag702
ag676
ag774
ag327
ag775
ag91
ag426
ag233
ag127
ag736
ag435
ag166
ag214
ag191
ag167
ag76
ag677
ag215
ag490
ag385
ag343
asg15
I00
sg51
(lp1533
g1376
ag1507
ag831
ag847
ag1018
ag1148
ag1153
ag1482
ag1154
ag1161
ag1440
ag995
ag1441
ag848
ag921
ag890
ag836
ag1508
ag1228
ag1368
ag1006
ag1229
ag1019
ag1509
ag1165
ag1020
ag828
ag923
ag982
ag1230
ag1510
ag1495
ag1511
ag837
ag1231
ag849
ag900
ag944
ag901
ag1021
ag1313
ag1022
ag1232
ag1496
ag1278
ag1216
ag1226
ag1007
ag1245
ag1512
ag838
ag1286
ag941
ag1175
ag1023
ag1008
ag924
ag850
ag1155
ag1513
ag1246
ag1514
ag983
ag1431
ag984
ag1460
ag1442
ag1515
ag895
ag1487
ag996
ag1149
ag839
ag1024
ag1323
ag1420
ag1516
ag1443
ag1517
ag1483
ag1432
ag851
ag1025
ag946
ag1369
ag1247
ag1026
ag1027
ag1466
ag1028
ag1029
ag1030
ag1137
ag1031
ag1518
ag1444
ag896
ag1032
ag902
ag1033
ag1166
ag826
ag1422
ag1217
ag1034
ag1377
ag1176
ag925
ag852
ag1218
ag977
ag1035
ag1467
ag1211
ag1036
ag1519
ag903
ag1037
ag1009
ag1010
ag1308
ag1038
ag926
ag1293
ag927
ag1378
ag892
ag1237
ag1484
ag1011
ag1248
ag1497
ag997
ag1039
ag1324
ag1445
ag853
ag1520
ag955
ag1249
ag854
ag1325
ag1040
ag1314
ag1488
ag998
ag1167
ag1177
ag928
ag840
ag1144
ag855
ag999
ag1041
ag1315
ag1250
ag1168
ag856
ag1306
ag1251
ag1134
ag1489
ag1461
ag1370
ag985
ag1446
ag857
ag1042
ag1362
ag1294
ag1295
ag1178
ag947
ag1279
ag1296
ag1372
ag1252
ag1043
ag1179
ag1464
ag1287
ag1044
ag1045
ag1046
ag1379
ag1521
ag1253
ag1423
ag858
ag1047
ag1354
ag859
ag1433
ag1048
ag1447
ag1522
ag942
ag1049
ag1434
ag860
ag861
ag1050
ag1356
ag1051
ag832
ag1117
ag1156
ag1498
ag1254
ag1052
ag1053
ag1138
ag1499
ag1281
ag1418
ag1145
ag1326
ag1523
ag1255
ag1054
ag1118
ag1169
ag1256
ag1162
ag1180
ag1157
ag1181
ag956
ag1424
ag1468
ag1219
ag862
ag1182
ag1462
ag957
ag1500
ag1380
ag986
ag863
ag1238
ag1327
ag1448
ag841
ag1055
ag904
ag1427
ag1485
ag1501
ag905
ag978
ag1056
ag897
ag1257
ag1239
ag906
ag1524
ag888
ag829
ag1258
ag1183
ag1158
ag1469
ag1352
ag1363
ag1184
ag929
ag1502
ag1233
ag907
ag1057
ag833
ag1503
ag1146
ag1185
ag1234
ag1000
ag864
ag1259
ag1373
ag1260
ag1525
ag980
ag1428
ag908
ag1220
ag1150
ag1490
ag1058
ag1328
ag1221
ag1526
ag1209
ag1288
ag1059
ag1316
ag1060
ag1061
ag1381
ag1002
ag1062
ag1063
asg14
I1
sb.