(iid3_node
node
p0
(dp1
S'left_node'
p2
(iid3_node
node
p3
(dp4
g2
(iid3_node
node
p5
(dp6
g2
(iid3_node
node
p7
(dp8
g2
(iid3_node
node
p9
(dp10
g2
(iid3_node
node
p11
(dp12
S'class_prediction'
p13
I0
sS'is_pure'
p14
I01
sbsS'right_data'
p15
(lp16
(lp17
S'0'
p18
aS'1'
p19
ag18
ag19
ag18
ag19
ag19
ag19
ag19
ag19
ag19
ag18
ag18
ag18
ag19
ag19
ag19
ag19
ag18
ag18
ag19
aa(lp20
g18
ag18
ag18
ag19
ag18
ag19
ag18
ag18
ag18
ag19
ag19
ag18
ag19
ag18
ag19
ag19
ag18
ag18
ag18
ag18
ag18
aa(lp21
g18
ag18
ag19
ag18
ag18
ag19
ag18
ag18
ag19
ag19
ag18
ag18
ag19
ag18
ag19
ag19
ag19
ag19
ag18
ag18
ag18
aa(lp22
g18
ag18
ag19
ag19
ag18
ag19
ag18
ag19
ag19
ag18
ag19
ag18
ag18
ag18
ag19
ag18
ag18
ag19
ag19
ag19
ag18
aa(lp23
g18
ag19
ag19
ag18
ag18
ag19
ag19
ag18
ag18
ag19
ag19
ag18
ag19
ag18
ag18
ag19
ag18
ag19
ag19
ag19
ag18
aa(lp24
g18
ag18
ag18
ag19
ag18
ag19
ag19
ag18
ag19
ag19
ag19
ag18
ag19
ag18
ag19
ag18
ag18
ag19
ag19
ag18
ag19
aa(lp25
g18
ag19
ag19
ag19
ag18
ag19
ag19
ag18
ag18
ag18
ag18
ag18
ag18
ag18
ag19
ag19
ag18
ag19
ag18
ag18
ag18
aa(lp26
g18
ag18
ag18
ag18
ag18
ag19
ag18
ag18
ag18
ag18
ag19
ag18
ag18
ag18
ag19
ag19
ag18
ag19
ag18
ag18
ag19
aa(lp27
g18
ag18
ag18
ag19
ag18
ag19
ag19
ag19
ag18
ag19
ag18
ag18
ag18
ag18
ag18
ag19
ag18
ag19
ag19
ag18
ag19
aa(lp28
g18
ag18
ag18
ag19
ag18
ag19
ag19
ag18
ag19
ag18
ag18
ag18
ag19
ag18
ag18
ag19
ag18
ag19
ag19
ag18
ag19
aa(lp29
g18
ag18
ag18
ag19
ag18
ag19
ag19
ag19
ag19
ag18
ag18
ag18
ag19
ag18
ag18
ag18
ag18
ag19
ag18
ag18
ag19
aa(lp30
g18
ag18
ag19
ag19
ag18
ag19
ag19
ag18
ag18
ag19
ag18
ag18
ag18
ag18
ag18
ag19
ag18
ag19
ag19
ag18
ag19
aa(lp31
g18
ag18
ag18
ag18
ag18
ag19
ag18
ag19
ag19
ag19
ag19
ag18
ag19
ag18
ag19
ag19
ag18
ag19
ag19
ag19
ag19
aa(lp32
g18
ag18
ag18
ag19
ag18
ag19
ag19
ag19
ag18
ag19
ag18
ag18
ag19
ag18
ag18
ag19
ag18
ag19
ag18
ag19
ag19
aa(lp33
g18
ag19
ag18
ag19
ag18
ag19
ag19
ag19
ag19
ag18
ag18
ag18
ag18
ag18
ag19
ag19
ag19
ag19
ag18
ag19
ag19
aa(lp34
g18
ag18
ag18
ag19
ag18
ag19
ag19
ag19
ag19
ag19
ag18
ag18
ag18
ag18
ag18
ag19
ag18
ag19
ag19
ag18
ag19
aa(lp35
g18
ag18
ag18
ag19
ag18
ag19
ag19
ag18
ag19
ag19
ag18
ag18
ag18
ag18
ag18
ag19
ag18
ag18
ag19
ag18
ag18
aa(lp36
g18
ag19
ag18
ag18
ag18
ag19
ag19
ag18
ag19
ag19
ag19
ag18
ag18
ag18
ag19
ag18
ag18
ag19
ag19
ag18
ag19
aa(lp37
g18
ag18
ag18
ag18
ag18
ag19
ag19
ag19
ag18
ag19
ag18
ag18
ag19
ag18
ag18
ag18
ag18
ag19
ag19
ag18
ag19
aa(lp38
g18
ag19
ag18
ag18
ag18
ag19
ag18
ag19
ag19
ag18
ag19
ag18
ag18
ag18
ag18
ag18
ag18
ag19
ag19
ag18
ag18
aa(lp39
g18
ag18
ag19
ag18
ag18
ag19
ag18
ag19
ag18
ag19
ag18
ag18
ag18
ag18
ag18
ag18
ag19
ag19
ag18
ag18
ag18
aa(lp40
g18
ag18
ag18
ag18
ag18
ag19
ag18
ag18
ag19
ag19
ag19
ag18
ag18
ag18
ag19
ag18
ag18
ag19
ag18
ag18
ag19
aa(lp41
g18
ag18
ag18
ag19
ag18
ag19
ag18
ag19
ag19
ag19
ag19
ag18
ag19
ag18
ag19
ag18
ag18
ag19
ag19
ag18
ag19
aa(lp42
g18
ag19
ag19
ag18
ag18
ag19
ag19
ag18
ag19
ag19
ag19
ag18
ag18
ag18
ag19
ag18
ag18
ag19
ag19
ag19
ag18
aa(lp43
g18
ag19
ag18
ag18
ag18
ag19
ag18
ag19
ag19
ag19
ag18
ag18
ag19
ag18
ag19
ag18
ag18
ag19
ag18
ag18
ag18
aasS'feature_label'
p44
S'XG'
p45
sS'right_node'
p46
(iid3_node
node
p47
(dp48
g2
(iid3_node
node
p49
(dp50
g2
(iid3_node
node
p51
(dp52
g13
I0
sg14
I01
sbsg15
(lp53
g17
ag24
ag26
ag27
ag28
ag29
ag31
ag32
ag33
ag34
ag36
ag37
ag38
ag40
ag41
ag43
asg44
S'XS'
p54
sg46
(iid3_node
node
p55
(dp56
g2
(iid3_node
node
p57
(dp58
g13
I1
sg14
I01
sbsg15
(lp59
g17
ag33
ag36
ag38
ag43
asg44
S'XC'
p60
sg46
(iid3_node
node
p61
(dp62
g2
(iid3_node
node
p63
(dp64
g13
I0
sg14
I01
sbsg15
(lp65
g17
ag33
ag36
asg44
S'XH'
p66
sg46
(iid3_node
node
p67
(dp68
g13
I1
sg14
I01
sbsS'left_data'
p69
(lp70
g38
ag43
asbsg69
(lp71
g24
ag26
ag27
ag28
ag29
ag31
ag32
ag34
ag37
ag40
ag41
asbsg69
(lp72
g20
ag35
asbsg15
(lp73
g21
ag22
ag23
ag25
ag30
ag39
ag42
asg44
S'XD'
p74
sg46
(iid3_node
node
p75
(dp76
g2
(iid3_node
node
p77
(dp78
g2
(iid3_node
node
p79
(dp80
g13
I0
sg14
I01
sbsg15
(lp81
g30
asg44
S'XE'
p82
sg46
(iid3_node
node
p83
(dp84
g13
I1
sg14
I01
sbsg69
(lp85
g23
ag39
asbsg15
(lp86
g21
ag22
ag25
ag42
asg44
S'XP'
p87
sg46
(iid3_node
node
p88
(dp89
g13
I0
sg14
I01
sbsg69
(lp90
g23
ag30
ag39
asbsg69
(lp91
g17
ag20
ag24
ag26
ag27
ag28
ag29
ag31
ag32
ag33
ag34
ag35
ag36
ag37
ag38
ag40
ag41
ag43
asbsg69
(lp92
(lp93
g18
ag19
ag18
ag18
ag18
ag18
ag19
ag19
ag19
ag18
ag19
ag18
ag19
ag18
ag18
ag19
ag19
ag19
ag19
ag18
ag18
aa(lp94
g18
ag18
ag18
ag19
ag18
ag18
ag18
ag18
ag19
ag19
ag19
ag18
ag18
ag18
ag19
ag18
ag19
ag18
ag19
ag18
ag18
aa(lp95
g18
ag18
ag18
ag19
ag18
ag18
ag19
ag19
ag19
ag18
ag19
ag18
ag19
ag18
ag19
ag18
ag19
ag18
ag18
ag19
ag18
aa(lp96
g18
ag19
ag19
ag18
ag18
ag18
ag18
ag18
ag18
ag19
ag18
ag18
ag18
ag18
ag19
ag19
ag18
ag19
ag18
ag18
ag18
aa(lp97
g18
ag19
ag18
ag19
ag18
ag18
ag19
ag19
ag18
ag19
ag18
ag18
ag19
ag18
ag19
ag18
ag18
ag19
ag18
ag18
ag18
aa(lp98
g18
ag19
ag18
ag18
ag18
ag18
ag19
ag19
ag19
ag18
ag19
ag18
ag18
ag18
ag18
ag18
ag19
ag18
ag18
ag19
ag18
aa(lp99
g18
ag18
ag19
ag19
ag18
ag18
ag19
ag18
ag19
ag19
ag18
ag18
ag18
ag18
ag18
ag18
ag18
ag19
ag18
ag19
ag18
aa(lp100
g18
ag18
ag19
ag18
ag18
ag18
ag19
ag19
ag19
ag18
ag18
ag18
ag19
ag18
ag19
ag19
ag18
ag19
ag18
ag18
ag18
aa(lp101
g18
ag18
ag18
ag19
ag18
ag18
ag18
ag18
ag18
ag18
ag19
ag18
ag19
ag18
ag18
ag19
ag19
ag19
ag18
ag18
ag18
aasbsg15
(lp102
(lp103
g19
ag19
ag19
ag19
ag18
ag19
ag18
ag18
ag19
ag19
ag19
ag18
ag18
ag18
ag18
ag18
ag19
ag19
ag18
ag18
ag18
aa(lp104
g19
ag18
ag19
ag18
ag18
ag19
ag19
ag18
ag18
ag19
ag18
ag18
ag19
ag18
ag18
ag19
ag18
ag18
ag19
ag19
ag18
aa(lp105
g19
ag19
ag18
ag19
ag18
ag19
ag18
ag18
ag19
ag19
ag18
ag18
ag19
ag18
ag19
ag18
ag18
ag19
ag19
ag19
ag18
aa(lp106
g19
ag18
ag19
ag19
ag18
ag19
ag18
ag19
ag18
ag19
ag19
ag18
ag18
ag18
ag19
ag19
ag18
ag18
ag18
ag19
ag18
aa(lp107
g19
ag18
ag19
ag19
ag18
ag18
ag19
ag18
ag19
ag19
ag18
ag18
ag18
ag18
ag18
ag18
ag18
ag18
ag18
ag18
ag18
aa(lp108
g19
ag18
ag19
ag19
ag18
ag18
ag19
ag19
ag19
ag18
ag18
ag18
ag19
ag18
ag19
ag18
ag19
ag18
ag18
ag19
ag19
aa(lp109
g19
ag18
ag19
ag19
ag18
ag18
ag18
ag19
ag19
ag18
ag19
ag18
ag19
ag18
ag19
ag19
ag18
ag18
ag18
ag18
ag19
aa(lp110
g19
ag18
ag18
ag18
ag18
ag18
ag19
ag19
ag18
ag19
ag19
ag18
ag19
ag18
ag19
ag19
ag19
ag18
ag18
ag18
ag18
aa(lp111
g19
ag19
ag19
ag18
ag18
ag19
ag19
ag18
ag19
ag18
ag19
ag18
ag19
ag18
ag18
ag18
ag19
ag19
ag19
ag19
ag18
aa(lp112
g19
ag19
ag18
ag18
ag18
ag18
ag18
ag19
ag19
ag18
ag19
ag18
ag19
ag18
ag19
ag18
ag19
ag18
ag19
ag19
ag18
aa(lp113
g19
ag18
ag18
ag18
ag18
ag19
ag19
ag18
ag18
ag18
ag18
ag18
ag19
ag18
ag19
ag18
ag18
ag19
ag19
ag18
ag18
aa(lp114
g19
ag18
ag19
ag19
ag18
ag18
ag19
ag19
ag19
ag18
ag18
ag18
ag19
ag18
ag18
ag18
ag18
ag19
ag19
ag18
ag19
aa(lp115
g19
ag19
ag18
ag19
ag18
ag19
ag18
ag19
ag19
ag19
ag19
ag18
ag19
ag18
ag19
ag19
ag19
ag18
ag19
ag19
ag18
aa(lp116
g19
ag18
ag18
ag19
ag18
ag19
ag19
ag18
ag19
ag18
ag19
ag18
ag19
ag18
ag18
ag18
ag19
ag19
ag19
ag18
ag18
aa(lp117
g19
ag19
ag18
ag19
ag18
ag19
ag19
ag18
ag18
ag19
ag19
ag18
ag18
ag18
ag19
ag18
ag19
ag19
ag18
ag18
ag18
aa(lp118
g19
ag19
ag18
ag19
ag18
ag19
ag18
ag19
ag19
ag18
ag18
ag18
ag19
ag18
ag19
ag19
ag19
ag19
ag18
ag19
ag18
aa(lp119
g19
ag19
ag18
ag18
ag18
ag18
ag19
ag19
ag19
ag19
ag19
ag18
ag18
ag18
ag19
ag19
ag18
ag19
ag19
ag19
ag18
aa(lp120
g19
ag18
ag18
ag18
ag18
ag18
ag18
ag19
ag18
ag18
ag18
ag18
ag19
ag18
ag18
ag19
ag19
ag19
ag19
ag19
ag18
aa(lp121
g19
ag19
ag18
ag18
ag18
ag18
ag18
ag18
ag19
ag18
ag18
ag18
ag18
ag18
ag19
ag18
ag19
ag18
ag19
ag19
ag18
aa(lp122
g19
ag18
ag19
ag18
ag18
ag18
ag18
ag18
ag18
ag18
ag18
ag18
ag19
ag18
ag18
ag18
ag18
ag18
ag19
ag19
ag18
aa(lp123
g19
ag18
ag18
ag18
ag18
ag18
ag18
ag19
ag19
ag19
ag19
ag18
ag18
ag18
ag18
ag18
ag18
ag18
ag19
ag18
ag18
aa(lp124
g19
ag18
ag18
ag18
ag18
ag18
ag18
ag18
ag18
ag19
ag19
ag18
ag19
ag18
ag18
ag18
ag19
ag19
ag19
ag19
ag18
aa(lp125
g19
ag19
ag18
ag18
ag18
ag18
ag19
ag18
ag18
ag18
ag18
ag18
ag19
ag18
ag19
ag19
ag18
ag18
ag19
ag19
ag18
aa(lp126
g19
ag18
ag18
ag18
ag18
ag18
ag19
ag18
ag19
ag18
ag19
ag18
ag18
ag18
ag19
ag19
ag18
ag18
ag18
ag19
ag18
aa(lp127
g19
ag18
ag18
ag18
ag18
ag19
ag18
ag19
ag19
ag19
ag19
ag18
ag19
ag18
ag19
ag18
ag19
ag18
ag19
ag19
ag18
aasg44
S'XB'
p128
sg46
(iid3_node
node
p129
(dp130
g2
(iid3_node
node
p131
(dp132
g13
I0
sg14
I01
sbsg15
(lp133
g103
ag104
ag106
ag107
ag108
ag109
ag111
ag114
ag122
asg44
g74
sg46
(iid3_node
node
p134
(dp135
g2
(iid3_node
node
p136
(dp137
g13
I0
sg14
I01
sbsg15
(lp138
g106
ag108
ag109
ag114
asg44
S'XI'
p139
sg46
(iid3_node
node
p140
(dp141
g2
(iid3_node
node
p142
(dp143
g13
I0
sg14
I01
sbsg15
(lp144
g108
ag109
ag114
asg44
S'XN'
p145
sg46
(iid3_node
node
p146
(dp147
g13
I1
sg14
I01
sbsg69
(lp148
g106
asbsg69
(lp149
g103
ag104
ag107
ag111
ag122
asbsg69
(lp150
g105
ag110
ag112
ag113
ag115
ag116
ag117
ag118
ag119
ag120
ag121
ag123
ag124
ag125
ag126
ag127
asbsg69
(lp151
g17
ag20
ag21
ag93
ag22
ag23
ag24
ag25
ag26
ag94
ag95
ag96
ag97
ag27
ag28
ag29
ag30
ag31
ag98
ag99
ag32
ag33
ag34
ag35
ag36
ag37
ag38
ag39
ag40
ag100
ag101
ag41
ag42
ag43
asbsg15
(lp152
(lp153
g18
ag18
ag19
ag19
ag19
ag19
ag19
ag18
ag18
ag18
ag19
ag18
ag18
ag18
ag18
ag18
ag18
ag19
ag19
ag19
ag18
aa(lp154
g18
ag19
ag18
ag19
ag19
ag19
ag19
ag18
ag18
ag19
ag18
ag18
ag19
ag18
ag18
ag18
ag19
ag19
ag19
ag19
ag18
aa(lp155
g18
ag19
ag18
ag19
ag19
ag19
ag18
ag18
ag18
ag19
ag18
ag18
ag18
ag18
ag19
ag19
ag19
ag19
ag18
ag18
ag18
aa(lp156
g19
ag18
ag19
ag18
ag19
ag19
ag19
ag18
ag18
ag18
ag18
ag18
ag18
ag18
ag19
ag18
ag18
ag18
ag19
ag18
ag18
aa(lp157
g19
ag19
ag18
ag19
ag19
ag19
ag19
ag18
ag19
ag18
ag19
ag18
ag18
ag18
ag19
ag18
ag18
ag18
ag18
ag18
ag18
aa(lp158
g18
ag18
ag19
ag18
ag19
ag18
ag19
ag19
ag19
ag19
ag18
ag18
ag18
ag18
ag18
ag18
ag19
ag19
ag18
ag18
ag18
aa(lp159
g18
ag19
ag18
ag18
ag19
ag18
ag18
ag19
ag19
ag18
ag19
ag18
ag19
ag18
ag19
ag19
ag19
ag19
ag18
ag19
ag18
aa(lp160
g18
ag19
ag19
ag19
ag19
ag18
ag19
ag19
ag19
ag19
ag19
ag18
ag18
ag18
ag18
ag18
ag19
ag18
ag18
ag19
ag18
aa(lp161
g19
ag18
ag19
ag18
ag19
ag19
ag18
ag18
ag19
ag18
ag18
ag18
ag19
ag18
ag18
ag19
ag18
ag19
ag19
ag18
ag18
aa(lp162
g19
ag19
ag18
ag19
ag19
ag19
ag19
ag18
ag19
ag18
ag18
ag18
ag19
ag18
ag19
ag18
ag18
ag18
ag18
ag19
ag18
aa(lp163
g18
ag19
ag19
ag19
ag19
ag19
ag19
ag18
ag19
ag18
ag19
ag18
ag19
ag18
ag18
ag19
ag19
ag19
ag19
ag19
ag18
aa(lp164
g19
ag19
ag19
ag18
ag19
ag18
ag19
ag18
ag19
ag18
ag18
ag18
ag19
ag18
ag19
ag19
ag19
ag19
ag18
ag18
ag18
aa(lp165
g18
ag19
ag19
ag19
ag19
ag19
ag19
ag18
ag19
ag19
ag19
ag18
ag18
ag18
ag19
ag18
ag18
ag18
ag18
ag19
ag18
aa(lp166
g18
ag19
ag18
ag18
ag19
ag18
ag19
ag19
ag18
ag19
ag18
ag18
ag19
ag18
ag19
ag18
ag18
ag18
ag19
ag18
ag18
aa(lp167
g19
ag19
ag18
ag18
ag19
ag18
ag18
ag19
ag19
ag19
ag19
ag18
ag18
ag18
ag18
ag19
ag19
ag18
ag18
ag19
ag18
aa(lp168
g19
ag19
ag18
ag19
ag19
ag18
ag18
ag19
ag18
ag19
ag19
ag18
ag19
ag18
ag19
ag18
ag19
ag18
ag19
ag19
ag18
aa(lp169
g18
ag18
ag19
ag18
ag19
ag18
ag18
ag19
ag18
ag18
ag18
ag18
ag19
ag18
ag19
ag19
ag18
ag19
ag19
ag19
ag18
aa(lp170
g18
ag19
ag19
ag19
ag19
ag19
ag18
ag19
ag18
ag19
ag18
ag18
ag18
ag18
ag19
ag19
ag18
ag18
ag19
ag19
ag18
aa(lp171
g18
ag18
ag19
ag18
ag19
ag18
ag18
ag19
ag19
ag19
ag19
ag18
ag18
ag18
ag19
ag19
ag19
ag19
ag19
ag18
ag18
aa(lp172
g18
ag18
ag19
ag19
ag19
ag18
ag18
ag19
ag18
ag19
ag19
ag18
ag18
ag18
ag18
ag19
ag19
ag18
ag18
ag18
ag18
aa(lp173
g19
ag18
ag18
ag19
ag19
ag19
ag18
ag18
ag18
ag19
ag19
ag18
ag19
ag18
ag18
ag19
ag18
ag18
ag19
ag18
ag18
aa(lp174
g18
ag19
ag18
ag18
ag19
ag18
ag19
ag18
ag19
ag19
ag18
ag18
ag18
ag18
ag18
ag19
ag19
ag19
ag18
ag19
ag18
aa(lp175
g19
ag18
ag19
ag18
ag19
ag19
ag18
ag19
ag18
ag18
ag19
ag18
ag19
ag18
ag19
ag19
ag18
ag19
ag18
ag18
ag18
aa(lp176
g19
ag18
ag18
ag19
ag19
ag19
ag19
ag19
ag19
ag19
ag19
ag18
ag18
ag18
ag18
ag18
ag18
ag19
ag19
ag18
ag18
aa(lp177
g18
ag19
ag18
ag19
ag19
ag18
ag18
ag18
ag19
ag18
ag19
ag18
ag19
ag18
ag19
ag18
ag19
ag18
ag19
ag18
ag18
aa(lp178
g19
ag18
ag19
ag19
ag19
ag19
ag19
ag18
ag18
ag18
ag19
ag18
ag18
ag18
ag18
ag18
ag19
ag18
ag18
ag19
ag18
aa(lp179
g19
ag18
ag18
ag19
ag19
ag18
ag18
ag19
ag19
ag19
ag19
ag18
ag18
ag18
ag19
ag18
ag19
ag18
ag18
ag18
ag18
aa(lp180
g18
ag19
ag19
ag18
ag19
ag18
ag19
ag19
ag18
ag18
ag19
ag18
ag19
ag18
ag19
ag18
ag18
ag19
ag19
ag19
ag18
aa(lp181
g19
ag19
ag19
ag19
ag19
ag19
ag18
ag19
ag18
ag18
ag19
ag18
ag19
ag18
ag19
ag19
ag18
ag19
ag19
ag18
ag18
aa(lp182
g18
ag18
ag18
ag19
ag19
ag19
ag19
ag19
ag19
ag18
ag18
ag18
ag19
ag18
ag19
ag19
ag18
ag19
ag19
ag19
ag18
aa(lp183
g18
ag18
ag18
ag19
ag19
ag18
ag19
ag19
ag19
ag19
ag18
ag18
ag18
ag18
ag18
ag19
ag18
ag18
ag18
ag18
ag18
aa(lp184
g19
ag19
ag18
ag19
ag19
ag19
ag18
ag19
ag19
ag18
ag18
ag18
ag19
ag18
ag19
ag19
ag19
ag19
ag19
ag18
ag18
aa(lp185
g19
ag19
ag18
ag18
ag19
ag18
ag19
ag19
ag18
ag19
ag18
ag18
ag18
ag18
ag19
ag19
ag19
ag19
ag19
ag19
ag18
aa(lp186
g18
ag19
ag19
ag19
ag19
ag19
ag18
ag18
ag19
ag18
ag18
ag18
ag19
ag18
ag18
ag19
ag18
ag19
ag18
ag18
ag18
aa(lp187
g18
ag18
ag18
ag18
ag19
ag19
ag19
ag19
ag18
ag18
ag18
ag18
ag19
ag18
ag18
ag18
ag19
ag18
ag18
ag18
ag18
aa(lp188
g18
ag19
ag18
ag18
ag19
ag18
ag18
ag18
ag19
ag18
ag19
ag18
ag19
ag18
ag19
ag19
ag18
ag19
ag18
ag19
ag18
aa(lp189
g18
ag18
ag18
ag19
ag19
ag19
ag19
ag19
ag18
ag18
ag19
ag18
ag19
ag18
ag18
ag19
ag18
ag19
ag19
ag19
ag18
aa(lp190
g18
ag18
ag19
ag18
ag19
ag18
ag18
ag19
ag19
ag19
ag19
ag18
ag19
ag18
ag19
ag19
ag19
ag18
ag19
ag18
ag18
aa(lp191
g18
ag18
ag18
ag19
ag19
ag18
ag18
ag18
ag18
ag18
ag19
ag18
ag18
ag18
ag18
ag18
ag18
ag18
ag18
ag18
ag18
aa(lp192
g18
ag19
ag19
ag18
ag19
ag19
ag19
ag18
ag18
ag18
ag19
ag18
ag19
ag18
ag19
ag19
ag18
ag19
ag18
ag19
ag18
aa(lp193
g18
ag18
ag19
ag18
ag19
ag18
ag19
ag19
ag19
ag19
ag19
ag18
ag19
ag18
ag18
ag19
ag18
ag19
ag18
ag18
ag18
aa(lp194
g18
ag18
ag19
ag19
ag19
ag18
ag19
ag18
ag19
ag19
ag18
ag18
ag19
ag18
ag19
ag18
ag19
ag18
ag18
ag18
ag18
aa(lp195
g19
ag18
ag18
ag18
ag19
ag18
ag18
ag19
ag19
ag19
ag18
ag18
ag18
ag18
ag19
ag18
ag18
ag19
ag18
ag19
ag18
aa(lp196
g18
ag19
ag19
ag19
ag19
ag19
ag18
ag19
ag18
ag19
ag19
ag18
ag19
ag18
ag19
ag19
ag19
ag19
ag19
ag19
ag18
aa(lp197
g18
ag19
ag18
ag18
ag19
ag19
ag19
ag18
ag19
ag19
ag19
ag18
ag18
ag18
ag18
ag19
ag19
ag19
ag18
ag18
ag18
aa(lp198
g19
ag19
ag18
ag19
ag19
ag18
ag18
ag18
ag19
ag19
ag18
ag18
ag19
ag18
ag18
ag18
ag18
ag18
ag19
ag19
ag18
aa(lp199
g18
ag19
ag18
ag18
ag19
ag18
ag18
ag18
ag19
ag19
ag18
ag18
ag18
ag18
ag18
ag18
ag19
ag18
ag18
ag19
ag18
aa(lp200
g19
ag19
ag18
ag19
ag19
ag19
ag18
ag19
ag18
ag19
ag18
ag18
ag19
ag18
ag18
ag19
ag19
ag19
ag18
ag19
ag18
aa(lp201
g19
ag18
ag18
ag19
ag19
ag18
ag19
ag18
ag18
ag18
ag19
ag18
ag19
ag18
ag18
ag18
ag18
ag19
ag19
ag18
ag18
aa(lp202
g18
ag18
ag19
ag19
ag19
ag18
ag18
ag19
ag19
ag18
ag18
ag18
ag19
ag18
ag19
ag18
ag18
ag19
ag18
ag18
ag18
aa(lp203
g18
ag19
ag18
ag18
ag19
ag18
ag18
ag18
ag19
ag19
ag18
ag18
ag19
ag18
ag19
ag18
ag18
ag18
ag18
ag19
ag18
aasg44
S'XF'
p204
sg46
(iid3_node
node
p205
(dp206
g13
I0
sg14
I01
sbsg69
(lp207
g17
ag20
ag103
ag21
ag104
ag93
ag22
ag105
ag106
ag107
ag108
ag109
ag110
ag23
ag24
ag25
ag111
ag112
ag26
ag113
ag94
ag95
ag114
ag115
ag116
ag96
ag97
ag117
ag118
ag119
ag120
ag27
ag121
ag28
ag29
ag30
ag31
ag98
ag99
ag122
ag32
ag33
ag34
ag35
ag36
ag123
ag37
ag38
ag124
ag125
ag39
ag126
ag40
ag100
ag101
ag41
ag127
ag42
ag43
asbsg15
(lp208
(lp209
g19
ag18
ag19
ag19
ag19
ag18
ag19
ag19
ag19
ag18
ag18
ag19
ag18
ag18
ag18
ag19
ag18
ag18
ag18
ag18
ag19
aa(lp210
g19
ag18
ag19
ag18
ag18
ag18
ag18
ag19
ag19
ag18
ag18
ag19
ag18
ag18
ag18
ag18
ag19
ag18
ag18
ag18
ag19
aa(lp211
g18
ag18
ag19
ag18
ag18
ag18
ag18
ag19
ag19
ag19
ag18
ag19
ag19
ag18
ag19
ag19
ag18
ag19
ag19
ag19
ag18
aa(lp212
g18
ag18
ag18
ag19
ag19
ag19
ag19
ag18
ag19
ag19
ag19
ag19
ag19
ag18
ag19
ag18
ag19
ag18
ag18
ag19
ag18
aa(lp213
g18
ag19
ag18
ag18
ag18
ag19
ag19
ag19
ag18
ag18
ag18
ag19
ag19
ag18
ag18
ag18
ag18
ag19
ag19
ag18
ag19
aa(lp214
g18
ag18
ag19
ag18
ag19
ag19
ag18
ag18
ag19
ag19
ag19
ag19
ag18
ag18
ag18
ag19
ag19
ag19
ag18
ag19
ag18
aa(lp215
g18
ag18
ag19
ag19
ag19
ag19
ag19
ag18
ag18
ag19
ag18
ag19
ag18
ag18
ag18
ag19
ag18
ag19
ag19
ag18
ag19
aa(lp216
g18
ag19
ag18
ag19
ag19
ag18
ag19
ag18
ag19
ag19
ag18
ag19
ag18
ag18
ag19
ag19
ag19
ag18
ag19
ag18
ag19
aa(lp217
g19
ag19
ag18
ag19
ag18
ag19
ag19
ag18
ag19
ag19
ag18
ag19
ag19
ag18
ag19
ag19
ag18
ag18
ag18
ag18
ag18
aa(lp218
g18
ag19
ag19
ag18
ag18
ag19
ag19
ag19
ag18
ag18
ag18
ag19
ag19
ag18
ag18
ag19
ag19
ag18
ag18
ag18
ag18
aa(lp219
g19
ag19
ag18
ag18
ag19
ag19
ag18
ag19
ag19
ag18
ag18
ag19
ag18
ag18
ag19
ag19
ag19
ag19
ag19
ag19
ag18
aa(lp220
g19
ag18
ag19
ag18
ag18
ag18
ag18
ag19
ag18
ag18
ag18
ag19
ag19
ag18
ag19
ag18
ag19
ag18
ag19
ag19
ag19
aa(lp221
g19
ag19
ag18
ag19
ag19
ag19
ag18
ag18
ag19
ag18
ag18
ag19
ag19
ag18
ag19
ag19
ag18
ag19
ag19
ag18
ag18
aa(lp222
g18
ag18
ag19
ag19
ag19
ag18
ag18
ag18
ag18
ag19
ag19
ag19
ag18
ag18
ag18
ag19
ag19
ag18
ag19
ag18
ag19
aa(lp223
g19
ag19
ag18
ag19
ag18
ag19
ag18
ag18
ag18
ag19
ag19
ag19
ag18
ag18
ag18
ag19
ag18
ag19
ag18
ag18
ag18
aa(lp224
g19
ag19
ag18
ag18
ag18
ag19
ag19
ag19
ag19
ag19
ag19
ag19
ag19
ag18
ag19
ag18
ag19
ag19
ag19
ag19
ag18
aa(lp225
g18
ag18
ag18
ag19
ag19
ag18
ag18
ag19
ag19
ag18
ag19
ag19
ag19
ag18
ag18
ag18
ag19
ag19
ag19
ag19
ag19
aa(lp226
g18
ag18
ag18
ag19
ag18
ag19
ag18
ag18
ag19
ag19
ag19
ag19
ag19
ag18
ag19
ag18
ag18
ag19
ag19
ag18
ag19
aa(lp227
g18
ag19
ag18
ag19
ag19
ag19
ag18
ag18
ag19
ag19
ag18
ag19
ag19
ag18
ag18
ag19
ag19
ag19
ag18
ag18
ag19
aa(lp228
g19
ag19
ag18
ag18
ag18
ag19
ag19
ag18
ag19
ag18
ag19
ag19
ag18
ag18
ag19
ag19
ag19
ag19
ag19
ag19
ag18
aa(lp229
g18
ag19
ag19
ag19
ag18
ag18
ag18
ag19
ag19
ag18
ag19
ag19
ag18
ag18
ag18
ag19
ag18
ag19
ag19
ag19
ag18
aa(lp230
g18
ag18
ag19
ag19
ag19
ag18
ag19
ag19
ag19
ag18
ag19
ag19
ag18
ag18
ag19
ag18
ag18
ag18
ag19
ag18
ag19
aa(lp231
g19
ag18
ag19
ag18
ag19
ag19
ag18
ag19
ag18
ag18
ag19
ag19
ag19
ag18
ag18
ag18
ag18
ag18
ag18
ag18
ag19
aa(lp232
g18
ag18
ag18
ag19
ag19
ag18
ag19
ag19
ag19
ag19
ag18
ag19
ag18
ag18
ag19
ag18
ag18
ag19
ag18
ag19
ag19
aa(lp233
g19
ag18
ag19
ag18
ag18
ag18
ag19
ag19
ag19
ag19
ag19
ag19
ag18
ag18
ag19
ag19
ag19
ag19
ag19
ag18
ag18
aa(lp234
g18
ag18
ag19
ag18
ag19
ag18
ag19
ag18
ag19
ag19
ag19
ag19
ag19
ag18
ag18
ag19
ag19
ag18
ag18
ag19
ag19
aa(lp235
g18
ag18
ag18
ag19
ag19
ag18
ag19
ag18
ag19
ag19
ag18
ag19
ag18
ag18
ag18
ag19
ag19
ag18
ag18
ag18
ag19
aa(lp236
g18
ag19
ag18
ag19
ag19
ag18
ag19
ag18
ag18
ag18
ag19
ag19
ag18
ag18
ag18
ag19
ag19
ag18
ag18
ag19
ag19
aa(lp237
g18
ag19
ag18
ag19
ag18
ag19
ag18
ag19
ag18
ag18
ag18
ag19
ag18
ag18
ag18
ag19
ag18
ag19
ag18
ag19
ag19
aa(lp238
g18
ag18
ag18
ag19
ag19
ag18
ag19
ag19
ag18
ag18
ag18
ag19
ag18
ag18
ag19
ag18
ag18
ag18
ag18
ag19
ag19
aa(lp239
g18
ag19
ag18
ag19
ag19
ag19
ag19
ag18
ag19
ag19
ag19
ag19
ag18
ag18
ag18
ag19
ag18
ag18
ag18
ag18
ag19
aa(lp240
g18
ag18
ag18
ag18
ag19
ag18
ag19
ag19
ag19
ag18
ag18
ag19
ag19
ag18
ag19
ag18
ag19
ag18
ag18
ag18
ag19
aa(lp241
g18
ag19
ag18
ag18
ag19
ag19
ag18
ag19
ag18
ag19
ag19
ag19
ag18
ag18
ag19
ag18
ag19
ag18
ag19
ag18
ag19
aa(lp242
g18
ag19
ag18
ag19
ag19
ag19
ag19
ag18
ag18
ag19
ag18
ag19
ag18
ag18
ag19
ag19
ag18
ag19
ag18
ag18
ag19
aa(lp243
g18
ag19
ag18
ag18
ag19
ag18
ag19
ag19
ag18
ag19
ag19
ag19
ag19
ag18
ag19
ag18
ag18
ag19
ag18
ag18
ag19
aa(lp244
g18
ag19
ag18
ag18
ag19
ag18
ag18
ag18
ag19
ag19
ag18
ag19
ag19
ag18
ag19
ag19
ag19
ag18
ag19
ag18
ag19
aa(lp245
g18
ag18
ag19
ag18
ag18
ag19
ag18
ag18
ag18
ag18
ag18
ag19
ag19
ag18
ag19
ag18
ag19
ag19
ag19
ag18
ag18
aa(lp246
g19
ag18
ag19
ag19
ag19
ag19
ag19
ag19
ag19
ag18
ag19
ag19
ag19
ag18
ag18
ag18
ag18
ag19
ag18
ag19
ag19
aa(lp247
g18
ag19
ag19
ag18
ag19
ag19
ag19
ag19
ag18
ag18
ag19
ag19
ag19
ag18
ag19
ag19
ag18
ag19
ag19
ag19
ag18
aa(lp248
g18
ag19
ag18
ag19
ag18
ag19
ag18
ag19
ag19
ag19
ag18
ag19
ag18
ag18
ag18
ag19
ag19
ag19
ag18
ag19
ag19
aa(lp249
g18
ag19
ag18
ag18
ag18
ag18
ag19
ag18
ag19
ag19
ag18
ag19
ag18
ag18
ag18
ag19
ag19
ag19
ag18
ag19
ag18
aa(lp250
g18
ag19
ag18
ag19
ag19
ag19
ag18
ag19
ag19
ag18
ag18
ag19
ag18
ag18
ag18
ag19
ag18
ag18
ag18
ag19
ag19
aa(lp251
g18
ag18
ag18
ag19
ag18
ag19
ag19
ag19
ag19
ag19
ag19
ag19
ag19
ag18
ag19
ag18
ag18
ag19
ag18
ag19
ag19
aa(lp252
g19
ag18
ag19
ag19
ag19
ag19
ag19
ag19
ag19
ag18
ag18
ag19
ag19
ag18
ag18
ag18
ag18
ag19
ag18
ag19
ag19
aa(lp253
g18
ag18
ag18
ag18
ag19
ag18
ag19
ag18
ag19
ag19
ag18
ag19
ag18
ag18
ag19
ag19
ag18
ag18
ag19
ag19
ag19
aa(lp254
g18
ag18
ag19
ag18
ag19
ag18
ag18
ag19
ag18
ag18
ag18
ag19
ag18
ag18
ag18
ag18
ag19
ag19
ag18
ag18
ag19
aa(lp255
g18
ag18
ag18
ag19
ag19
ag18
ag18
ag19
ag18
ag19
ag18
ag19
ag18
ag18
ag19
ag19
ag19
ag18
ag18
ag19
ag19
aa(lp256
g19
ag18
ag19
ag18
ag18
ag18
ag18
ag19
ag18
ag18
ag18
ag19
ag18
ag18
ag19
ag19
ag19
ag18
ag18
ag18
ag19
aa(lp257
g19
ag18
ag19
ag18
ag18
ag18
ag18
ag19
ag19
ag18
ag18
ag19
ag18
ag18
ag18
ag18
ag19
ag19
ag18
ag18
ag19
aa(lp258
g18
ag19
ag18
ag19
ag19
ag18
ag18
ag18
ag19
ag18
ag19
ag19
ag19
ag18
ag19
ag19
ag18
ag18
ag18
ag18
ag19
aa(lp259
g19
ag19
ag19
ag19
ag19
ag19
ag18
ag18
ag18
ag19
ag19
ag19
ag18
ag18
ag19
ag18
ag19
ag19
ag18
ag19
ag18
aa(lp260
g18
ag18
ag18
ag18
ag18
ag19
ag19
ag19
ag18
ag19
ag19
ag19
ag19
ag18
ag19
ag18
ag18
ag19
ag18
ag19
ag19
aa(lp261
g19
ag19
ag19
ag19
ag19
ag19
ag19
ag18
ag19
ag18
ag18
ag19
ag18
ag18
ag19
ag19
ag19
ag18
ag18
ag18
ag18
aa(lp262
g18
ag18
ag18
ag18
ag18
ag18
ag18
ag18
ag18
ag18
ag19
ag19
ag18
ag18
ag19
ag18
ag18
ag19
ag18
ag19
ag18
aa(lp263
g19
ag18
ag19
ag19
ag19
ag18
ag19
ag19
ag18
ag18
ag19
ag19
ag19
ag18
ag19
ag18
ag19
ag19
ag19
ag19
ag18
aa(lp264
g18
ag18
ag19
ag19
ag18
ag19
ag19
ag19
ag18
ag19
ag18
ag19
ag19
ag18
ag18
ag18
ag18
ag18
ag19
ag19
ag18
aa(lp265
g18
ag18
ag19
ag18
ag19
ag18
ag18
ag19
ag18
ag18
ag18
ag19
ag18
ag18
ag18
ag19
ag18
ag18
ag18
ag18
ag19
aa(lp266
g19
ag18
ag19
ag19
ag18
ag19
ag19
ag19
ag19
ag18
ag18
ag19
ag18
ag18
ag19
ag19
ag19
ag18
ag18
ag19
ag18
aa(lp267
g18
ag19
ag19
ag18
ag18
ag19
ag18
ag19
ag19
ag19
ag19
ag19
ag18
ag18
ag19
ag18
ag18
ag18
ag18
ag19
ag18
aa(lp268
g18
ag19
ag18
ag18
ag19
ag18
ag18
ag19
ag19
ag19
ag18
ag19
ag18
ag18
ag19
ag18
ag18
ag19
ag18
ag19
ag19
aa(lp269
g19
ag18
ag19
ag19
ag19
ag19
ag18
ag19
ag18
ag18
ag19
ag19
ag19
ag18
ag19
ag19
ag18
ag18
ag19
ag18
ag19
aa(lp270
g18
ag19
ag18
ag19
ag19
ag19
ag19
ag19
ag19
ag19
ag18
ag19
ag18
ag18
ag18
ag19
ag19
ag19
ag19
ag19
ag19
aa(lp271
g18
ag19
ag18
ag19
ag19
ag19
ag19
ag19
ag18
ag19
ag18
ag19
ag18
ag18
ag18
ag18
ag19
ag19
ag18
ag19
ag19
aa(lp272
g18
ag19
ag18
ag19
ag18
ag19
ag18
ag18
ag18
ag19
ag18
ag19
ag18
ag18
ag19
ag19
ag18
ag19
ag18
ag18
ag19
aa(lp273
g18
ag18
ag19
ag18
ag19
ag18
ag18
ag18
ag19
ag18
ag19
ag19
ag19
ag18
ag19
ag19
ag18
ag18
ag19
ag19
ag19
aa(lp274
g18
ag19
ag18
ag19
ag19
ag19
ag18
ag18
ag19
ag19
ag19
ag19
ag19
ag18
ag18
ag19
ag19
ag18
ag18
ag18
ag19
aa(lp275
g18
ag18
ag19
ag18
ag19
ag18
ag19
ag19
ag19
ag18
ag18
ag19
ag19
ag18
ag19
ag18
ag18
ag19
ag19
ag18
ag18
aa(lp276
g19
ag18
ag19
ag19
ag18
ag18
ag18
ag19
ag18
ag18
ag18
ag19
ag18
ag18
ag18
ag18
ag18
ag18
ag18
ag18
ag19
aa(lp277
g18
ag19
ag18
ag19
ag19
ag18
ag19
ag19
ag18
ag18
ag18
ag19
ag19
ag18
ag19
ag19
ag19
ag19
ag18
ag18
ag18
aa(lp278
g18
ag18
ag18
ag19
ag19
ag18
ag18
ag18
ag19
ag18
ag19
ag19
ag18
ag18
ag19
ag19
ag18
ag18
ag19
ag19
ag19
aa(lp279
g18
ag19
ag19
ag18
ag19
ag18
ag19
ag19
ag19
ag19
ag19
ag19
ag18
ag18
ag18
ag19
ag19
ag19
ag19
ag18
ag18
aa(lp280
g18
ag18
ag19
ag19
ag19
ag18
ag18
ag18
ag19
ag19
ag19
ag19
ag19
ag18
ag19
ag19
ag18
ag18
ag18
ag18
ag19
aa(lp281
g19
ag18
ag18
ag19
ag19
ag18
ag18
ag18
ag19
ag19
ag18
ag19
ag19
ag18
ag18
ag18
ag18
ag19
ag19
ag18
ag18
aa(lp282
g19
ag18
ag19
ag19
ag19
ag18
ag18
ag19
ag19
ag18
ag19
ag19
ag18
ag18
ag18
ag19
ag18
ag18
ag19
ag19
ag19
aa(lp283
g18
ag19
ag18
ag19
ag19
ag19
ag18
ag18
ag19
ag18
ag19
ag19
ag19
ag18
ag18
ag19
ag18
ag19
ag19
ag18
ag19
aa(lp284
g18
ag19
ag18
ag19
ag19
ag18
ag18
ag19
ag19
ag19
ag19
ag19
ag19
ag18
ag19
ag18
ag19
ag19
ag18
ag18
ag19
aa(lp285
g18
ag18
ag19
ag18
ag19
ag19
ag18
ag18
ag18
ag19
ag18
ag19
ag18
ag18
ag18
ag19
ag18
ag19
ag18
ag18
ag19
aa(lp286
g19
ag19
ag19
ag18
ag19
ag19
ag19
ag18
ag19
ag19
ag18
ag19
ag18
ag18
ag19
ag18
ag19
ag18
ag19
ag18
ag18
aa(lp287
g18
ag18
ag19
ag19
ag19
ag18
ag19
ag19
ag18
ag18
ag19
ag19
ag19
ag18
ag18
ag19
ag19
ag18
ag19
ag18
ag19
aa(lp288
g18
ag18
ag19
ag19
ag19
ag19
ag19
ag18
ag19
ag18
ag19
ag19
ag19
ag18
ag19
ag19
ag18
ag18
ag19
ag18
ag19
aa(lp289
g18
ag18
ag18
ag18
ag18
ag18
ag18
ag19
ag19
ag19
ag19
ag19
ag18
ag18
ag18
ag18
ag18
ag19
ag19
ag18
ag18
aa(lp290
g18
ag19
ag18
ag19
ag18
ag19
ag19
ag19
ag18
ag19
ag18
ag19
ag19
ag18
ag19
ag18
ag19
ag19
ag18
ag18
ag19
aa(lp291
g18
ag18
ag19
ag19
ag18
ag18
ag18
ag18
ag18
ag18
ag18
ag19
ag18
ag18
ag19
ag18
ag19
ag19
ag18
ag19
ag18
aa(lp292
g18
ag19
ag18
ag18
ag19
ag19
ag18
ag18
ag19
ag18
ag18
ag19
ag18
ag18
ag19
ag19
ag18
ag18
ag18
ag18
ag19
aa(lp293
g18
ag19
ag18
ag18
ag19
ag19
ag18
ag19
ag18
ag19
ag18
ag19
ag19
ag18
ag18
ag19
ag19
ag19
ag19
ag19
ag19
aa(lp294
g19
ag19
ag19
ag19
ag19
ag18
ag19
ag19
ag19
ag19
ag19
ag19
ag19
ag18
ag19
ag19
ag19
ag18
ag18
ag18
ag18
aa(lp295
g18
ag19
ag18
ag18
ag19
ag19
ag19
ag19
ag19
ag19
ag18
ag19
ag18
ag18
ag18
ag19
ag19
ag18
ag19
ag18
ag19
aa(lp296
g19
ag18
ag19
ag19
ag19
ag19
ag18
ag19
ag18
ag18
ag18
ag19
ag19
ag18
ag18
ag18
ag18
ag19
ag18
ag19
ag19
aa(lp297
g18
ag18
ag18
ag19
ag18
ag18
ag19
ag18
ag19
ag19
ag18
ag19
ag18
ag18
ag18
ag18
ag19
ag19
ag19
ag19
ag18
aa(lp298
g18
ag18
ag18
ag18
ag19
ag19
ag18
ag18
ag19
ag18
ag19
ag19
ag19
ag18
ag18
ag19
ag18
ag18
ag19
ag18
ag19
aa(lp299
g18
ag18
ag19
ag18
ag19
ag18
ag18
ag18
ag18
ag19
ag19
ag19
ag18
ag18
ag18
ag19
ag19
ag18
ag19
ag19
ag19
aa(lp300
g19
ag18
ag18
ag19
ag18
ag18
ag19
ag18
ag19
ag19
ag19
ag19
ag19
ag18
ag18
ag18
ag18
ag18
ag18
ag18
ag18
aa(lp301
g19
ag18
ag19
ag18
ag19
ag18
ag18
ag19
ag19
ag18
ag18
ag19
ag19
ag18
ag18
ag19
ag19
ag18
ag18
ag19
ag19
aa(lp302
g18
ag19
ag18
ag19
ag19
ag19
ag19
ag18
ag18
ag19
ag19
ag19
ag18
ag18
ag18
ag19
ag19
ag19
ag18
ag19
ag18
aa(lp303
g18
ag18
ag19
ag19
ag18
ag18
ag18
ag18
ag19
ag18
ag18
ag19
ag18
ag18
ag18
ag19
ag19
ag19
ag19
ag19
ag18
aa(lp304
g18
ag19
ag18
ag18
ag18
ag19
ag19
ag18
ag19
ag19
ag19
ag19
ag18
ag18
ag19
ag18
ag19
ag19
ag18
ag18
ag19
aa(lp305
g19
ag18
ag18
ag19
ag19
ag18
ag19
ag18
ag19
ag18
ag18
ag19
ag19
ag18
ag19
ag18
ag18
ag19
ag18
ag19
ag18
aa(lp306
g19
ag19
ag18
ag18
ag18
ag18
ag18
ag19
ag19
ag19
ag19
ag19
ag18
ag18
ag19
ag18
ag19
ag18
ag18
ag18
ag18
aa(lp307
g19
ag19
ag19
ag19
ag19
ag18
ag18
ag18
ag18
ag18
ag19
ag19
ag19
ag18
ag18
ag19
ag18
ag19
ag19
ag19
ag18
aa(lp308
g18
ag18
ag18
ag19
ag19
ag18
ag18
ag19
ag18
ag19
ag18
ag19
ag19
ag18
ag18
ag18
ag19
ag19
ag18
ag19
ag18
aa(lp309
g18
ag19
ag18
ag18
ag18
ag18
ag18
ag19
ag19
ag19
ag18
ag19
ag19
ag18
ag19
ag18
ag19
ag18
ag19
ag19
ag18
aa(lp310
g18
ag18
ag19
ag18
ag18
ag19
ag19
ag19
ag18
ag18
ag18
ag19
ag19
ag18
ag18
ag19
ag18
ag19
ag18
ag19
ag19
aa(lp311
g19
ag18
ag19
ag18
ag18
ag19
ag18
ag19
ag18
ag18
ag18
ag19
ag18
ag18
ag19
ag19
ag18
ag18
ag18
ag19
ag18
aa(lp312
g18
ag18
ag18
ag18
ag19
ag18
ag19
ag19
ag19
ag18
ag18
ag19
ag19
ag18
ag19
ag18
ag18
ag19
ag19
ag18
ag19
aa(lp313
g19
ag18
ag19
ag18
ag18
ag18
ag19
ag19
ag19
ag18
ag18
ag19
ag18
ag18
ag18
ag18
ag19
ag19
ag18
ag19
ag19
aa(lp314
g19
ag18
ag19
ag18
ag19
ag18
ag18
ag19
ag18
ag18
ag19
ag19
ag18
ag18
ag18
ag19
ag19
ag18
ag18
ag19
ag19
aa(lp315
g18
ag18
ag18
ag19
ag18
ag18
ag18
ag19
ag19
ag18
ag19
ag19
ag19
ag18
ag19
ag19
ag18
ag18
ag18
ag18
ag18
aa(lp316
g18
ag18
ag18
ag19
ag19
ag19
ag19
ag18
ag18
ag18
ag19
ag19
ag18
ag18
ag19
ag18
ag18
ag18
ag18
ag19
ag18
aa(lp317
g18
ag19
ag19
ag19
ag18
ag19
ag19
ag19
ag19
ag18
ag18
ag19
ag19
ag18
ag18
ag18
ag19
ag19
ag19
ag18
ag18
aa(lp318
g18
ag19
ag19
ag18
ag18
ag19
ag18
ag18
ag19
ag18
ag19
ag19
ag18
ag18
ag18
ag19
ag18
ag18
ag18
ag19
ag18
aa(lp319
g18
ag19
ag18
ag18
ag19
ag18
ag19
ag19
ag18
ag18
ag19
ag19
ag19
ag18
ag18
ag18
ag18
ag18
ag19
ag19
ag18
aa(lp320
g18
ag18
ag19
ag18
ag19
ag19
ag18
ag18
ag19
ag18
ag18
ag19
ag18
ag18
ag18
ag18
ag19
ag18
ag19
ag18
ag18
aa(lp321
g19
ag18
ag18
ag19
ag19
ag19
ag18
ag18
ag19
ag19
ag18
ag19
ag18
ag18
ag19
ag19
ag18
ag18
ag18
ag19
ag18
aa(lp322
g18
ag18
ag18
ag19
ag19
ag18
ag18
ag19
ag19
ag18
ag18
ag19
ag18
ag18
ag18
ag19
ag18
ag18
ag18
ag19
ag19
aa(lp323
g18
ag19
ag19
ag19
ag18
ag19
ag19
ag19
ag19
ag19
ag19
ag19
ag19
ag18
ag18
ag18
ag18
ag19
ag18
ag19
ag18
aa(lp324
g19
ag19
ag18
ag18
ag19
ag19
ag18
ag18
ag18
ag19
ag18
ag19
ag19
ag18
ag18
ag18
ag19
ag18
ag19
ag19
ag18
aa(lp325
g18
ag19
ag18
ag19
ag19
ag19
ag18
ag19
ag18
ag18
ag19
ag19
ag18
ag18
ag19
ag18
ag19
ag18
ag19
ag18
ag19
aa(lp326
g18
ag18
ag18
ag19
ag18
ag19
ag18
ag18
ag19
ag18
ag18
ag19
ag18
ag18
ag18
ag18
ag18
ag19
ag18
ag18
ag19
aa(lp327
g18
ag18
ag18
ag19
ag18
ag19
ag18
ag19
ag19
ag18
ag19
ag19
ag18
ag18
ag19
ag19
ag18
ag19
ag18
ag19
ag19
aa(lp328
g18
ag18
ag18
ag18
ag18
ag19
ag19
ag18
ag19
ag18
ag18
ag19
ag19
ag18
ag18
ag18
ag18
ag19
ag18
ag18
ag19
aa(lp329
g18
ag19
ag18
ag18
ag19
ag18
ag18
ag18
ag19
ag19
ag19
ag19
ag19
ag18
ag18
ag19
ag19
ag18
ag18
ag19
ag19
aa(lp330
g18
ag18
ag18
ag19
ag19
ag18
ag19
ag19
ag18
ag18
ag19
ag19
ag19
ag18
ag19
ag19
ag19
ag19
ag18
ag19
ag18
aa(lp331
g18
ag19
ag18
ag19
ag18
ag19
ag18
ag18
ag19
ag19
ag19
ag19
ag19
ag18
ag19
ag18
ag19
ag19
ag19
ag18
ag19
aa(lp332
g18
ag18
ag19
ag18
ag19
ag18
ag19
ag18
ag18
ag19
ag19
ag19
ag18
ag18
ag18
ag19
ag19
ag18
ag19
ag18
ag19
aa(lp333
g19
ag19
ag19
ag18
ag19
ag19
ag18
ag19
ag19
ag18
ag19
ag19
ag18
ag18
ag19
ag18
ag18
ag18
ag19
ag18
ag18
aa(lp334
g18
ag19
ag18
ag19
ag18
ag19
ag19
ag18
ag18
ag19
ag18
ag19
ag18
ag18
ag18
ag18
ag19
ag19
ag19
ag18
ag19
aa(lp335
g18
ag18
ag19
ag18
ag18
ag19
ag18
ag18
ag19
ag19
ag18
ag19
ag19
ag18
ag18
ag18
ag18
ag19
ag19
ag18
ag19
aa(lp336
g18
ag18
ag19
ag18
ag18
ag18
ag19
ag19
ag19
ag19
ag18
ag19
ag18
ag18
ag18
ag18
ag19
ag18
ag19
ag18
ag18
aa(lp337
g19
ag18
ag19
ag19
ag18
ag18
ag19
ag19
ag19
ag19
ag19
ag19
ag19
ag18
ag18
ag19
ag19
ag19
ag18
ag19
ag18
aa(lp338
g19
ag18
ag19
ag18
ag19
ag19
ag19
ag18
ag19
ag18
ag19
ag19
ag19
ag18
ag19
ag19
ag18
ag19
ag18
ag18
ag18
aa(lp339
g18
ag18
ag19
ag19
ag19
ag18
ag19
ag19
ag19
ag18
ag18
ag19
ag19
ag18
ag18
ag18
ag18
ag19
ag19
ag19
ag19
aa(lp340
g18
ag18
ag19
ag19
ag18
ag18
ag18
ag18
ag19
ag18
ag18
ag19
ag18
ag18
ag18
ag18
ag19
ag19
ag18
ag18
ag18
aa(lp341
g19
ag18
ag18
ag19
ag19
ag18
ag18
ag18
ag19
ag18
ag18
ag19
ag18
ag18
ag18
ag19
ag18
ag19
ag19
ag19
ag18
aa(lp342
g19
ag18
ag19
ag18
ag19
ag19
ag18
ag19
ag19
ag18
ag19
ag19
ag18
ag18
ag18
ag18
ag18
ag18
ag18
ag19
ag19
aa(lp343
g18
ag19
ag19
ag18
ag18
ag19
ag19
ag18
ag18
ag18
ag18
ag19
ag18
ag18
ag19
ag18
ag19
ag19
ag18
ag19
ag18
aa(lp344
g18
ag18
ag18
ag19
ag19
ag18
ag19
ag19
ag19
ag18
ag19
ag19
ag18
ag18
ag18
ag19
ag18
ag18
ag18
ag18
ag18
aa(lp345
g18
ag19
ag18
ag19
ag19
ag18
ag19
ag18
ag19
ag18
ag18
ag19
ag19
ag18
ag19
ag19
ag18
ag18
ag18
ag19
ag19
aa(lp346
g19
ag18
ag18
ag19
ag19
ag18
ag19
ag19
ag19
ag18
ag18
ag19
ag18
ag18
ag19
ag19
ag19
ag19
ag19
ag19
ag18
aa(lp347
g18
ag19
ag19
ag19
ag19
ag18
ag18
ag18
ag19
ag18
ag18
ag19
ag19
ag18
ag18
ag19
ag19
ag19
ag18
ag19
ag18
aa(lp348
g19
ag18
ag19
ag19
ag18
ag19
ag19
ag19
ag18
ag18
ag18
ag19
ag19
ag18
ag18
ag18
ag18
ag19
ag18
ag19
ag19
aa(lp349
g19
ag18
ag19
ag19
ag18
ag18
ag18
ag19
ag19
ag18
ag19
ag19
ag18
ag18
ag19
ag19
ag18
ag18
ag18
ag19
ag19
aa(lp350
g18
ag18
ag19
ag19
ag18
ag19
ag19
ag18
ag18
ag18
ag18
ag19
ag18
ag18
ag18
ag18
ag18
ag19
ag19
ag18
ag19
aa(lp351
g18
ag18
ag18
ag18
ag18
ag18
ag19
ag19
ag19
ag18
ag18
ag19
ag18
ag18
ag19
ag19
ag19
ag19
ag19
ag18
ag18
aa(lp352
g18
ag19
ag18
ag19
ag19
ag18
ag19
ag19
ag18
ag18
ag18
ag19
ag18
ag18
ag19
ag18
ag18
ag18
ag18
ag18
ag19
aa(lp353
g18
ag19
ag18
ag19
ag19
ag18
ag19
ag19
ag19
ag19
ag19
ag19
ag19
ag18
ag19
ag18
ag19
ag19
ag18
ag19
ag19
aa(lp354
g19
ag19
ag18
ag19
ag18
ag18
ag18
ag19
ag18
ag18
ag19
ag19
ag18
ag18
ag18
ag19
ag19
ag18
ag19
ag18
ag18
aa(lp355
g18
ag18
ag19
ag19
ag19
ag19
ag18
ag18
ag19
ag18
ag18
ag19
ag18
ag18
ag19
ag19
ag18
ag18
ag19
ag18
ag19
aa(lp356
g19
ag18
ag19
ag18
ag19
ag19
ag19
ag19
ag19
ag18
ag18
ag19
ag19
ag18
ag19
ag19
ag18
ag18
ag19
ag18
ag19
aa(lp357
g19
ag18
ag19
ag19
ag18
ag18
ag18
ag19
ag19
ag18
ag19
ag19
ag18
ag18
ag19
ag19
ag19
ag18
ag19
ag19
ag19
aa(lp358
g19
ag19
ag19
ag19
ag19
ag18
ag19
ag18
ag18
ag19
ag19
ag19
ag19
ag18
ag19
ag19
ag19
ag18
ag19
ag19
ag18
aa(lp359
g19
ag18
ag19
ag19
ag18
ag18
ag19
ag19
ag19
ag18
ag18
ag19
ag19
ag18
ag18
ag18
ag18
ag18
ag18
ag18
ag19
aa(lp360
g18
ag18
ag18
ag19
ag19
ag19
ag19
ag18
ag19
ag19
ag18
ag19
ag19
ag18
ag19
ag19
ag18
ag19
ag19
ag18
ag19
aa(lp361
g18
ag18
ag19
ag19
ag19
ag19
ag18
ag19
ag19
ag18
ag18
ag19
ag19
ag18
ag18
ag18
ag18
ag19
ag18
ag18
ag18
aa(lp362
g19
ag18
ag19
ag18
ag18
ag18
ag19
ag18
ag19
ag18
ag18
ag19
ag18
ag18
ag18
ag18
ag19
ag19
ag18
ag18
ag18
aa(lp363
g18
ag19
ag18
ag18
ag18
ag19
ag18
ag19
ag18
ag19
ag19
ag19
ag18
ag18
ag19
ag18
ag19
ag19
ag18
ag19
ag19
aa(lp364
g18
ag18
ag18
ag18
ag19
ag19
ag18
ag18
ag19
ag19
ag18
ag19
ag18
ag18
ag19
ag18
ag19
ag19
ag19
ag19
ag18
aa(lp365
g19
ag18
ag19
ag19
ag19
ag18
ag18
ag18
ag19
ag18
ag19
ag19
ag19
ag18
ag18
ag19
ag18
ag18
ag19
ag19
ag18
aa(lp366
g18
ag19
ag18
ag18
ag19
ag18
ag19
ag18
ag18
ag19
ag18
ag19
ag18
ag18
ag19
ag19
ag19
ag18
ag18
ag18
ag19
aa(lp367
g18
ag18
ag19
ag19
ag18
ag18
ag18
ag18
ag18
ag19
ag18
ag19
ag19
ag18
ag18
ag19
ag18
ag18
ag19
ag18
ag18
aa(lp368
g19
ag18
ag19
ag18
ag18
ag18
ag19
ag18
ag18
ag18
ag19
ag19
ag19
ag18
ag19
ag18
ag18
ag19
ag19
ag19
ag18
aa(lp369
g18
ag18
ag19
ag19
ag19
ag18
ag19
ag19
ag19
ag18
ag18
ag19
ag19
ag18
ag18
ag18
ag19
ag19
ag19
ag18
ag19
aa(lp370
g18
ag19
ag19
ag19
ag18
ag18
ag18
ag19
ag18
ag19
ag19
ag19
ag19
ag18
ag18
ag18
ag19
ag18
ag19
ag18
ag18
aa(lp371
g19
ag18
ag19
ag18
ag19
ag18
ag19
ag19
ag18
ag19
ag18
ag19
ag18
ag18
ag19
ag19
ag18
ag19
ag19
ag19
ag18
aa(lp372
g18
ag18
ag18
ag18
ag19
ag18
ag19
ag18
ag19
ag19
ag18
ag19
ag19
ag18
ag19
ag18
ag19
ag19
ag18
ag19
ag18
aa(lp373
g18
ag18
ag18
ag18
ag19
ag19
ag18
ag18
ag18
ag18
ag18
ag19
ag18
ag18
ag18
ag19
ag18
ag18
ag19
ag18
ag19
aa(lp374
g18
ag18
ag18
ag18
ag19
ag19
ag18
ag19
ag18
ag18
ag18
ag19
ag19
ag18
ag19
ag19
ag18
ag19
ag18
ag18
ag19
aa(lp375
g18
ag19
ag18
ag19
ag18
ag19
ag18
ag18
ag19
ag19
ag18
ag19
ag19
ag18
ag19
ag18
ag19
ag19
ag18
ag18
ag19
aasg44
S'XM'
p376
sg46
(iid3_node
node
p377
(dp378
g2
(iid3_node
node
p379
(dp380
g2
(iid3_node
node
p381
(dp382
g2
(iid3_node
node
p383
(dp384
g13
I0
sg14
I01
sbsg15
(lp385
g213
ag218
ag226
ag237
ag245
ag248
ag251
ag260
ag264
ag267
ag272
ag290
ag304
ag310
ag317
ag318
ag323
ag326
ag327
ag328
ag331
ag334
ag335
ag343
ag350
ag363
ag375
asg44
g45
sg46
(iid3_node
node
p386
(dp387
g2
(iid3_node
node
p388
(dp389
g13
I1
sg14
I01
sbsg15
(lp390
g218
ag245
ag264
ag267
ag310
ag317
ag318
ag323
ag335
ag343
ag350
asg44
g74
sg46
(iid3_node
node
p391
(dp392
g2
(iid3_node
node
p393
(dp394
g2
(iid3_node
node
p395
(dp396
g13
I0
sg14
I01
sbsg15
(lp397
g245
ag310
ag335
ag350
asg44
g54
sg46
(iid3_node
node
p398
(dp399
g2
(iid3_node
node
p400
(dp401
g13
I1
sg14
I01
sbsg15
(lp402
g245
asg44
S'XR'
p403
sg46
(iid3_node
node
p404
(dp405
g13
I0
sg14
I01
sbsg69
(lp406
g310
ag335
ag350
asbsg69
(lp407
g264
asbsg15
(lp408
g218
ag267
ag317
ag318
ag323
ag343
asg44
g60
sg46
(iid3_node
node
p409
(dp410
g13
I0
sg14
I01
sbsg69
(lp411
g245
ag264
ag310
ag335
ag350
asbsg69
(lp412
g213
ag226
ag237
ag248
ag251
ag260
ag272
ag290
ag304
ag326
ag327
ag328
ag331
ag334
ag363
ag375
asbsg69
(lp413
g211
ag229
ag249
ag262
ag289
ag291
ag297
ag303
ag309
ag315
ag336
ag340
ag351
ag367
ag370
asbsg15
(lp414
g212
ag214
ag215
ag216
ag222
ag225
ag227
ag230
ag232
ag234
ag235
ag236
ag238
ag239
ag240
ag241
ag242
ag243
ag244
ag247
ag250
ag253
ag254
ag255
ag258
ag265
ag268
ag270
ag271
ag273
ag274
ag275
ag277
ag278
ag279
ag280
ag283
ag284
ag285
ag287
ag288
ag292
ag293
ag295
ag298
ag299
ag302
ag308
ag312
ag316
ag319
ag320
ag322
ag325
ag329
ag330
ag332
ag339
ag344
ag345
ag347
ag352
ag353
ag355
ag360
ag361
ag364
ag366
ag369
ag372
ag373
ag374
asg44
g204
sg46
(iid3_node
node
p415
(dp416
g2
(iid3_node
node
p417
(dp418
g2
(iid3_node
node
p419
(dp420
g2
(iid3_node
node
p421
(dp422
g13
I0
sg14
I01
sbsg15
(lp423
g230
ag238
ag240
ag241
ag319
ag325
ag352
asg44
g139
sg46
(iid3_node
node
p424
(dp425
g2
(iid3_node
node
p426
(dp427
g13
I0
sg14
I01
sbsg15
(lp428
g230
ag238
ag240
ag241
ag325
ag352
asg44
g87
sg46
(iid3_node
node
p429
(dp430
g13
I1
sg14
I01
sbsg69
(lp431
g319
asbsg69
(lp432
g212
ag316
ag320
asbsg15
(lp433
g216
ag222
ag234
ag235
ag236
ag239
ag244
ag250
ag253
ag255
ag258
ag265
ag273
ag274
ag278
ag280
ag287
ag288
ag292
ag295
ag298
ag299
ag322
ag329
ag332
ag344
ag345
ag355
ag366
ag373
asg44
S'XQ'
p434
sg46
(iid3_node
node
p435
(dp436
g2
(iid3_node
node
p437
(dp438
g13
I1
sg14
I01
sbsg15
(lp439
g250
ag255
ag265
ag287
ag295
ag322
ag344
asg44
g139
sg46
(iid3_node
node
p440
(dp441
g2
(iid3_node
node
p442
(dp443
g13
I1
sg14
I01
sbsg15
(lp444
g287
ag344
asg44
S'XL'
p445
sg46
(iid3_node
node
p446
(dp447
g2
(iid3_node
node
p448
(dp449
g13
I0
sg14
I01
sbsg15
(lp450
g287
asg44
S'XT'
p451
sg46
(iid3_node
node
p452
(dp453
g13
I1
sg14
I01
sbsg69
(lp454
g344
asbsg69
(lp455
g250
ag255
ag265
ag295
ag322
asbsg69
(lp456
g216
ag222
ag234
ag235
ag236
ag239
ag244
ag253
ag258
ag273
ag274
ag278
ag280
ag288
ag292
ag298
ag299
ag329
ag332
ag345
ag355
ag366
ag373
asbsg69
(lp457
g212
ag230
ag238
ag240
ag241
ag316
ag319
ag320
ag325
ag352
asbsg15
(lp458
g214
ag215
ag225
ag227
ag232
ag242
ag243
ag247
ag254
ag268
ag270
ag271
ag275
ag277
ag279
ag283
ag284
ag285
ag293
ag302
ag308
ag312
ag330
ag339
ag347
ag353
ag360
ag361
ag364
ag369
ag372
ag374
asg44
g54
sg46
(iid3_node
node
p459
(dp460
g2
(iid3_node
node
p461
(dp462
g2
(iid3_node
node
p463
(dp464
g13
I1
sg14
I01
sbsg15
(lp465
g215
ag247
ag275
ag285
ag339
ag361
asg44
g74
sg46
(iid3_node
node
p466
(dp467
g2
(iid3_node
node
p468
(dp469
g2
(iid3_node
node
p470
(dp471
g2
(iid3_node
node
p472
(dp473
g13
I0
sg14
I01
sbsg15
(lp474
g285
asg44
g434
sg46
(iid3_node
node
p475
(dp476
g13
I1
sg14
I01
sbsg69
(lp477
g361
asbsg15
(lp478
g215
ag339
asg44
g451
sg46
(iid3_node
node
p479
(dp480
g13
I1
sg14
I01
sbsg69
(lp481
g285
ag361
asbsg15
(lp482
g247
ag275
asg44
g87
sg46
(iid3_node
node
p483
(dp484
g13
I0
sg14
I01
sbsg69
(lp485
g215
ag285
ag339
ag361
asbsg69
(lp486
g232
ag242
ag243
ag268
ag283
ag312
ag360
ag374
asbsg15
(lp487
g214
ag225
ag227
ag254
ag270
ag271
ag277
ag279
ag284
ag293
ag302
ag308
ag330
ag347
ag353
ag364
ag369
ag372
asg44
g403
sg46
(iid3_node
node
p488
(dp489
g2
(iid3_node
node
p490
(dp491
g2
(iid3_node
node
p492
(dp493
g13
I1
sg14
I01
sbsg15
(lp494
g214
ag302
ag347
ag364
ag372
asg44
S'XU'
p495
sg46
(iid3_node
node
p496
(dp497
g13
I0
sg14
I01
sbsg69
(lp498
g227
asbsg15
(lp499
g225
ag254
ag270
ag271
ag277
ag279
ag284
ag293
ag308
ag330
ag353
ag369
asg44
g139
sg46
(iid3_node
node
p500
(dp501
g2
(iid3_node
node
p502
(dp503
g2
(iid3_node
node
p504
(dp505
g2
(iid3_node
node
p506
(dp507
g2
(iid3_node
node
p508
(dp509
g13
I1
sg14
I01
sbsg15
(lp510
g308
asg44
g495
sg46
(iid3_node
node
p511
(dp512
g13
I0
sg14
I01
sbsg69
(lp513
g254
asbsg15
(lp514
g225
ag284
ag353
ag369
asg44
S'XJ'
p515
sg46
(iid3_node
node
p516
(dp517
g13
I1
sg14
I01
sbsg69
(lp518
g254
ag308
asbsg15
(lp519
g277
ag279
ag330
asg44
g434
sg46
(iid3_node
node
p520
(dp521
g13
I0
sg14
I01
sbsg69
(lp522
g225
ag254
ag284
ag308
ag353
ag369
asbsg15
(lp523
g270
ag271
ag293
asg44
g45
sg46
(iid3_node
node
p524
(dp525
g13
I1
sg14
I01
sbsg69
(lp526
g225
ag254
ag277
ag279
ag284
ag308
ag330
ag353
ag369
asbsg69
(lp527
g214
ag227
ag302
ag347
ag364
ag372
asbsg69
(lp528
g215
ag232
ag242
ag243
ag247
ag268
ag275
ag283
ag285
ag312
ag339
ag360
ag361
ag374
asbsg69
(lp529
g212
ag216
ag222
ag230
ag234
ag235
ag236
ag238
ag239
ag240
ag241
ag244
ag250
ag253
ag255
ag258
ag265
ag273
ag274
ag278
ag280
ag287
ag288
ag292
ag295
ag298
ag299
ag316
ag319
ag320
ag322
ag325
ag329
ag332
ag344
ag345
ag352
ag355
ag366
ag373
asbsg69
(lp530
g211
ag213
ag218
ag226
ag229
ag237
ag245
ag248
ag249
ag251
ag260
ag262
ag264
ag267
ag272
ag289
ag290
ag291
ag297
ag303
ag304
ag309
ag310
ag315
ag317
ag318
ag323
ag326
ag327
ag328
ag331
ag334
ag335
ag336
ag340
ag343
ag350
ag351
ag363
ag367
ag370
ag375
asbsg15
(lp531
g209
ag210
ag217
ag219
ag220
ag221
ag223
ag224
ag228
ag231
ag233
ag246
ag252
ag256
ag257
ag259
ag261
ag263
ag266
ag269
ag276
ag281
ag282
ag286
ag294
ag296
ag300
ag301
ag305
ag306
ag307
ag311
ag313
ag314
ag321
ag324
ag333
ag337
ag338
ag341
ag342
ag346
ag348
ag349
ag354
ag356
ag357
ag358
ag359
ag362
ag365
ag368
ag371
asg44
g128
sg46
(iid3_node
node
p532
(dp533
g2
(iid3_node
node
p534
(dp535
g13
I0
sg14
I01
sbsg15
(lp536
g209
ag210
ag219
ag220
ag224
ag231
ag233
ag246
ag252
ag256
ag257
ag263
ag266
ag269
ag276
ag282
ag294
ag296
ag301
ag306
ag311
ag313
ag314
ag333
ag337
ag342
ag346
ag348
ag349
ag354
ag356
ag357
ag359
ag371
asg44
g139
sg46
(iid3_node
node
p537
(dp538
g2
(iid3_node
node
p539
(dp540
g2
(iid3_node
node
p541
(dp542
g13
I0
sg14
I01
sbsg15
(lp543
g209
ag210
ag220
ag231
ag246
ag252
ag256
ag257
ag263
ag266
ag269
ag276
ag282
ag296
ag301
ag311
ag313
ag314
ag333
ag342
ag348
ag349
ag356
ag357
ag359
asg44
g74
sg46
(iid3_node
node
p544
(dp545
g2
(iid3_node
node
p546
(dp547
g13
I1
sg14
I01
sbsg15
(lp548
g220
ag256
ag263
ag266
ag269
ag311
ag333
ag349
ag356
ag357
asg44
g87
sg46
(iid3_node
node
p549
(dp550
g2
(iid3_node
node
p551
(dp552
g2
(iid3_node
node
p553
(dp554
g13
I1
sg14
I01
sbsg15
(lp555
g266
ag269
ag311
ag333
ag356
asg44
g45
sg46
(iid3_node
node
p556
(dp557
g2
(iid3_node
node
p558
(dp559
g13
I0
sg14
I01
sbsg15
(lp560
g269
ag356
asg44
g145
sg46
(iid3_node
node
p561
(dp562
g13
I1
sg14
I01
sbsg69
(lp563
g266
ag311
ag333
asbsg69
(lp564
g220
ag256
ag349
ag357
asbsg15
(lp565
g263
asg44
g54
sg46
(iid3_node
node
p566
(dp567
g13
I0
sg14
I01
sbsg69
(lp568
g220
ag256
ag266
ag269
ag311
ag333
ag349
ag356
ag357
asbsg69
(lp569
g209
ag210
ag231
ag246
ag252
ag257
ag276
ag282
ag296
ag301
ag313
ag314
ag342
ag348
ag359
asbsg69
(lp570
g219
ag346
ag354
asbsg15
(lp571
g224
ag233
ag294
ag306
ag337
ag371
asg44
S'XK'
p572
sg46
(iid3_node
node
p573
(dp574
g13
I0
sg14
I01
sbsg69
(lp575
g209
ag210
ag219
ag220
ag231
ag246
ag252
ag256
ag257
ag263
ag266
ag269
ag276
ag282
ag296
ag301
ag311
ag313
ag314
ag333
ag342
ag346
ag348
ag349
ag354
ag356
ag357
ag359
asbsg69
(lp576
g217
ag221
ag223
ag228
ag259
ag261
ag281
ag286
ag300
ag305
ag307
ag321
ag324
ag338
ag341
ag358
ag362
ag365
ag368
asbsg69
(lp577
g211
ag212
ag213
ag214
ag215
ag216
ag218
ag222
ag225
ag226
ag227
ag229
ag230
ag232
ag234
ag235
ag236
ag237
ag238
ag239
ag240
ag241
ag242
ag243
ag244
ag245
ag247
ag248
ag249
ag250
ag251
ag253
ag254
ag255
ag258
ag260
ag262
ag264
ag265
ag267
ag268
ag270
ag271
ag272
ag273
ag274
ag275
ag277
ag278
ag279
ag280
ag283
ag284
ag285
ag287
ag288
ag289
ag290
ag291
ag292
ag293
ag295
ag297
ag298
ag299
ag302
ag303
ag304
ag308
ag309
ag310
ag312
ag315
ag316
ag317
ag318
ag319
ag320
ag322
ag323
ag325
ag326
ag327
ag328
ag329
ag330
ag331
ag332
ag334
ag335
ag336
ag339
ag340
ag343
ag344
ag345
ag347
ag350
ag351
ag352
ag353
ag355
ag360
ag361
ag363
ag364
ag366
ag367
ag369
ag370
ag372
ag373
ag374
ag375
asbsg69
(lp578
g153
ag154
ag17
ag155
ag156
ag157
ag158
ag159
ag20
ag103
ag21
ag160
ag104
ag161
ag162
ag163
ag93
ag22
ag164
ag105
ag165
ag106
ag166
ag107
ag108
ag109
ag110
ag167
ag23
ag168
ag169
ag170
ag171
ag172
ag24
ag25
ag111
ag112
ag26
ag173
ag174
ag113
ag94
ag95
ag114
ag175
ag176
ag177
ag178
ag179
ag180
ag181
ag182
ag183
ag115
ag116
ag96
ag184
ag97
ag185
ag186
ag187
ag117
ag118
ag119
ag120
ag188
ag189
ag27
ag121
ag190
ag28
ag191
ag29
ag192
ag30
ag31
ag98
ag193
ag99
ag194
ag195
ag196
ag197
ag122
ag198
ag32
ag33
ag199
ag34
ag35
ag36
ag123
ag37
ag38
ag124
ag125
ag39
ag126
ag40
ag200
ag100
ag101
ag41
ag201
ag127
ag42
ag202
ag43
ag203
asbsg15
(lp579
(lp580
g19
ag19
ag18
ag19
ag19
ag18
ag19
ag19
ag18
ag19
ag19
ag19
ag18
ag19
ag19
ag18
ag18
ag19
ag18
ag18
ag19
aa(lp581
g18
ag18
ag18
ag18
ag19
ag19
ag19
ag19
ag19
ag18
ag19
ag19
ag19
ag19
ag19
ag18
ag18
ag18
ag19
ag18
ag19
aa(lp582
g19
ag18
ag19
ag18
ag19
ag19
ag19
ag18
ag19
ag18
ag18
ag19
ag19
ag19
ag18
ag19
ag18
ag19
ag19
ag18
ag18
aa(lp583
g18
ag18
ag18
ag18
ag18
ag18
ag19
ag19
ag19
ag19
ag19
ag18
ag19
ag19
ag18
ag18
ag19
ag19
ag19
ag19
ag18
aa(lp584
g18
ag18
ag18
ag18
ag19
ag19
ag18
ag19
ag18
ag19
ag18
ag19
ag19
ag19
ag19
ag18
ag18
ag18
ag18
ag18
ag19
aa(lp585
g19
ag18
ag19
ag18
ag19
ag19
ag19
ag19
ag18
ag18
ag19
ag19
ag19
ag19
ag18
ag18
ag19
ag18
ag19
ag18
ag18
aa(lp586
g18
ag19
ag18
ag19
ag18
ag19
ag18
ag18
ag18
ag19
ag19
ag19
ag18
ag19
ag19
ag18
ag19
ag19
ag18
ag18
ag19
aa(lp587
g18
ag19
ag18
ag18
ag19
ag18
ag19
ag18
ag19
ag18
ag19
ag18
ag18
ag19
ag18
ag19
ag18
ag18
ag19
ag18
ag19
aa(lp588
g18
ag18
ag19
ag19
ag19
ag19
ag19
ag18
ag19
ag19
ag19
ag18
ag19
ag19
ag19
ag19
ag18
ag18
ag19
ag18
ag19
aa(lp589
g18
ag19
ag19
ag19
ag18
ag18
ag19
ag19
ag18
ag19
ag19
ag18
ag18
ag19
ag19
ag18
ag18
ag19
ag18
ag19
ag18
aa(lp590
g18
ag18
ag19
ag18
ag19
ag18
ag18
ag19
ag19
ag18
ag19
ag18
ag19
ag19
ag18
ag18
ag18
ag19
ag18
ag18
ag19
aa(lp591
g18
ag18
ag18
ag19
ag19
ag19
ag19
ag18
ag18
ag18
ag19
ag18
ag18
ag19
ag18
ag18
ag18
ag19
ag18
ag19
ag18
aa(lp592
g18
ag19
ag19
ag19
ag19
ag18
ag18
ag18
ag19
ag19
ag18
ag19
ag19
ag19
ag18
ag19
ag19
ag19
ag19
ag18
ag18
aa(lp593
g18
ag18
ag18
ag19
ag19
ag18
ag19
ag19
ag19
ag19
ag18
ag18
ag19
ag19
ag18
ag18
ag18
ag18
ag19
ag19
ag19
aa(lp594
g18
ag18
ag19
ag19
ag19
ag18
ag18
ag19
ag19
ag19
ag18
ag19
ag18
ag19
ag18
ag19
ag18
ag19
ag19
ag19
ag18
aa(lp595
g18
ag19
ag18
ag19
ag19
ag19
ag18
ag19
ag19
ag19
ag19
ag19
ag18
ag19
ag19
ag18
ag19
ag18
ag19
ag19
ag19
aa(lp596
g19
ag18
ag18
ag18
ag18
ag18
ag19
ag19
ag18
ag18
ag19
ag18
ag19
ag19
ag19
ag19
ag18
ag18
ag19
ag18
ag19
aa(lp597
g19
ag18
ag19
ag19
ag18
ag18
ag18
ag19
ag18
ag19
ag19
ag18
ag18
ag19
ag18
ag18
ag18
ag18
ag18
ag19
ag18
aa(lp598
g19
ag18
ag19
ag18
ag18
ag19
ag19
ag18
ag18
ag19
ag18
ag18
ag18
ag19
ag18
ag18
ag18
ag19
ag18
ag18
ag19
aa(lp599
g18
ag18
ag19
ag19
ag19
ag18
ag19
ag19
ag19
ag18
ag19
ag19
ag19
ag19
ag19
ag18
ag19
ag18
ag18
ag19
ag19
aa(lp600
g19
ag19
ag18
ag19
ag18
ag18
ag19
ag19
ag19
ag18
ag19
ag18
ag19
ag19
ag19
ag19
ag18
ag18
ag18
ag18
ag19
aa(lp601
g19
ag18
ag18
ag18
ag18
ag19
ag18
ag19
ag18
ag18
ag19
ag18
ag18
ag19
ag19
ag19
ag18
ag19
ag19
ag19
ag19
aa(lp602
g19
ag19
ag18
ag19
ag18
ag18
ag18
ag19
ag19
ag18
ag19
ag18
ag19
ag19
ag19
ag18
ag18
ag19
ag19
ag19
ag18
aa(lp603
g19
ag18
ag19
ag19
ag18
ag18
ag19
ag18
ag19
ag18
ag18
ag18
ag19
ag19
ag19
ag19
ag18
ag18
ag18
ag18
ag19
aa(lp604
g19
ag18
ag19
ag18
ag19
ag18
ag18
ag19
ag19
ag18
ag18
ag19
ag19
ag19
ag19
ag18
ag19
ag18
ag18
ag19
ag19
aa(lp605
g18
ag19
ag18
ag19
ag18
ag18
ag18
ag19
ag19
ag19
ag18
ag18
ag19
ag19
ag18
ag18
ag19
ag19
ag18
ag19
ag18
aa(lp606
g19
ag19
ag18
ag19
ag18
ag18
ag19
ag19
ag19
ag18
ag19
ag18
ag18
ag19
ag19
ag18
ag18
ag18
ag19
ag18
ag19
aa(lp607
g18
ag18
ag19
ag19
ag19
ag18
ag18
ag19
ag19
ag18
ag18
ag19
ag19
ag19
ag18
ag18
ag19
ag19
ag18
ag18
ag19
aa(lp608
g19
ag18
ag19
ag19
ag18
ag18
ag19
ag19
ag18
ag18
ag18
ag18
ag18
ag19
ag19
ag19
ag19
ag18
ag18
ag18
ag19
aa(lp609
g19
ag18
ag18
ag19
ag19
ag18
ag18
ag19
ag19
ag18
ag19
ag18
ag18
ag19
ag19
ag18
ag19
ag19
ag19
ag18
ag18
aa(lp610
g18
ag18
ag18
ag19
ag19
ag18
ag19
ag19
ag19
ag19
ag18
ag19
ag18
ag19
ag18
ag18
ag18
ag18
ag18
ag19
ag19
aa(lp611
g18
ag19
ag19
ag19
ag19
ag19
ag18
ag19
ag19
ag18
ag19
ag19
ag18
ag19
ag19
ag18
ag19
ag18
ag19
ag18
ag19
aa(lp612
g19
ag18
ag18
ag18
ag19
ag19
ag18
ag18
ag19
ag19
ag18
ag18
ag18
ag19
ag19
ag19
ag18
ag19
ag18
ag18
ag18
aa(lp613
g19
ag18
ag18
ag19
ag18
ag18
ag19
ag18
ag18
ag18
ag19
ag18
ag18
ag19
ag19
ag18
ag18
ag19
ag18
ag18
ag19
aa(lp614
g18
ag19
ag18
ag18
ag19
ag18
ag18
ag18
ag19
ag18
ag18
ag19
ag19
ag19
ag18
ag18
ag19
ag18
ag18
ag19
ag18
aa(lp615
g19
ag18
ag18
ag19
ag19
ag18
ag18
ag19
ag18
ag18
ag19
ag19
ag18
ag19
ag18
ag18
ag18
ag18
ag18
ag18
ag19
aa(lp616
g19
ag19
ag19
ag18
ag19
ag19
ag18
ag18
ag19
ag19
ag18
ag19
ag19
ag19
ag18
ag19
ag18
ag19
ag19
ag18
ag18
aa(lp617
g19
ag19
ag18
ag19
ag18
ag18
ag18
ag19
ag19
ag19
ag19
ag18
ag19
ag19
ag19
ag18
ag18
ag19
ag18
ag19
ag19
aa(lp618
g19
ag18
ag18
ag18
ag19
ag18
ag18
ag18
ag18
ag18
ag19
ag18
ag19
ag19
ag19
ag19
ag18
ag19
ag18
ag18
ag18
aa(lp619
g18
ag18
ag18
ag18
ag18
ag19
ag18
ag19
ag18
ag18
ag19
ag18
ag19
ag19
ag19
ag19
ag18
ag19
ag18
ag18
ag19
aa(lp620
g18
ag19
ag18
ag18
ag18
ag19
ag18
ag18
ag19
ag19
ag18
ag19
ag18
ag19
ag18
ag18
ag18
ag19
ag19
ag18
ag19
aa(lp621
g19
ag18
ag19
ag19
ag18
ag19
ag19
ag19
ag19
ag18
ag18
ag18
ag18
ag19
ag18
ag18
ag18
ag19
ag18
ag18
ag19
aa(lp622
g19
ag18
ag19
ag18
ag18
ag19
ag19
ag18
ag19
ag18
ag19
ag19
ag19
ag19
ag18
ag19
ag19
ag18
ag19
ag18
ag18
aa(lp623
g18
ag18
ag18
ag19
ag18
ag19
ag19
ag19
ag18
ag19
ag18
ag18
ag18
ag19
ag18
ag18
ag18
ag19
ag19
ag18
ag19
aa(lp624
g19
ag18
ag19
ag18
ag19
ag18
ag19
ag19
ag18
ag19
ag18
ag18
ag19
ag19
ag19
ag19
ag18
ag19
ag19
ag19
ag18
aa(lp625
g18
ag19
ag18
ag18
ag19
ag19
ag19
ag18
ag19
ag18
ag18
ag19
ag19
ag19
ag19
ag19
ag19
ag18
ag19
ag19
ag18
aa(lp626
g19
ag19
ag19
ag19
ag19
ag19
ag18
ag19
ag18
ag18
ag18
ag19
ag18
ag19
ag19
ag18
ag19
ag18
ag18
ag18
ag19
aa(lp627
g19
ag18
ag19
ag19
ag18
ag18
ag18
ag18
ag19
ag18
ag19
ag19
ag18
ag19
ag19
ag19
ag18
ag19
ag18
ag18
ag18
aa(lp628
g19
ag18
ag19
ag19
ag18
ag18
ag18
ag19
ag19
ag18
ag19
ag18
ag18
ag19
ag19
ag19
ag18
ag18
ag18
ag18
ag19
aa(lp629
g18
ag18
ag19
ag18
ag18
ag19
ag18
ag19
ag19
ag19
ag19
ag18
ag19
ag19
ag18
ag18
ag18
ag19
ag18
ag19
ag18
aa(lp630
g19
ag19
ag19
ag19
ag18
ag19
ag19
ag18
ag19
ag19
ag19
ag19
ag18
ag19
ag19
ag19
ag18
ag18
ag18
ag18
ag18
aa(lp631
g18
ag19
ag18
ag19
ag19
ag18
ag19
ag19
ag19
ag19
ag19
ag18
ag19
ag19
ag19
ag19
ag18
ag18
ag18
ag19
ag19
aa(lp632
g18
ag19
ag18
ag18
ag18
ag18
ag18
ag19
ag18
ag19
ag19
ag19
ag19
ag19
ag19
ag18
ag18
ag18
ag18
ag19
ag18
aa(lp633
g18
ag18
ag18
ag19
ag19
ag19
ag18
ag19
ag18
ag19
ag19
ag18
ag19
ag19
ag18
ag19
ag18
ag18
ag18
ag18
ag19
aa(lp634
g18
ag18
ag19
ag19
ag19
ag19
ag18
ag19
ag19
ag18
ag19
ag18
ag18
ag19
ag19
ag18
ag18
ag18
ag19
ag19
ag19
aa(lp635
g18
ag19
ag18
ag19
ag18
ag19
ag18
ag19
ag18
ag19
ag18
ag19
ag18
ag19
ag19
ag18
ag18
ag19
ag18
ag18
ag19
aa(lp636
g18
ag19
ag18
ag19
ag18
ag19
ag19
ag18
ag18
ag18
ag19
ag19
ag18
ag19
ag19
ag18
ag18
ag19
ag18
ag18
ag19
aa(lp637
g19
ag18
ag18
ag19
ag19
ag19
ag18
ag18
ag18
ag19
ag19
ag19
ag19
ag19
ag18
ag19
ag18
ag18
ag18
ag19
ag18
aa(lp638
g18
ag18
ag19
ag19
ag19
ag18
ag18
ag19
ag18
ag18
ag18
ag19
ag18
ag19
ag19
ag18
ag18
ag18
ag18
ag18
ag19
aa(lp639
g19
ag18
ag18
ag19
ag19
ag19
ag19
ag19
ag19
ag19
ag18
ag19
ag18
ag19
ag19
ag18
ag18
ag19
ag18
ag19
ag19
aa(lp640
g19
ag18
ag19
ag18
ag19
ag18
ag19
ag19
ag18
ag19
ag19
ag18
ag19
ag19
ag19
ag19
ag18
ag19
ag18
ag18
ag18
aa(lp641
g19
ag19
ag18
ag19
ag18
ag18
ag19
ag18
ag18
ag19
ag19
ag18
ag18
ag19
ag19
ag19
ag18
ag19
ag18
ag18
ag18
aa(lp642
g18
ag18
ag19
ag18
ag19
ag19
ag18
ag19
ag19
ag18
ag18
ag19
ag19
ag19
ag18
ag19
ag19
ag19
ag18
ag19
ag18
aa(lp643
g19
ag19
ag19
ag19
ag19
ag19
ag19
ag19
ag19
ag18
ag19
ag19
ag18
ag19
ag19
ag19
ag18
ag19
ag19
ag18
ag18
aa(lp644
g18
ag18
ag18
ag18
ag19
ag18
ag18
ag19
ag19
ag18
ag19
ag18
ag18
ag19
ag19
ag19
ag18
ag18
ag19
ag18
ag19
aa(lp645
g18
ag19
ag19
ag18
ag19
ag18
ag18
ag18
ag19
ag19
ag18
ag19
ag18
ag19
ag19
ag18
ag18
ag18
ag19
ag19
ag18
aa(lp646
g18
ag18
ag18
ag18
ag19
ag19
ag18
ag18
ag18
ag19
ag18
ag18
ag19
ag19
ag19
ag19
ag18
ag18
ag18
ag18
ag18
aa(lp647
g19
ag18
ag18
ag19
ag18
ag19
ag18
ag19
ag18
ag18
ag19
ag19
ag18
ag19
ag19
ag18
ag18
ag19
ag18
ag19
ag19
aa(lp648
g18
ag18
ag18
ag19
ag18
ag18
ag18
ag19
ag19
ag18
ag18
ag19
ag19
ag19
ag19
ag19
ag18
ag18
ag18
ag18
ag18
aa(lp649
g19
ag18
ag19
ag18
ag18
ag18
ag19
ag19
ag19
ag18
ag18
ag18
ag19
ag19
ag18
ag19
ag19
ag18
ag19
ag19
ag19
aa(lp650
g18
ag18
ag18
ag19
ag18
ag18
ag18
ag19
ag18
ag18
ag19
ag19
ag19
ag19
ag19
ag19
ag18
ag19
ag19
ag19
ag18
aa(lp651
g19
ag19
ag19
ag18
ag19
ag19
ag18
ag19
ag18
ag19
ag18
ag18
ag18
ag19
ag19
ag18
ag19
ag18
ag18
ag18
ag18
aa(lp652
g18
ag18
ag19
ag19
ag18
ag19
ag18
ag18
ag18
ag18
ag19
ag19
ag18
ag19
ag18
ag19
ag19
ag19
ag19
ag18
ag18
aa(lp653
g19
ag19
ag19
ag18
ag19
ag19
ag18
ag19
ag18
ag18
ag18
ag19
ag19
ag19
ag19
ag18
ag19
ag18
ag18
ag18
ag19
aa(lp654
g18
ag18
ag19
ag18
ag19
ag19
ag19
ag18
ag19
ag18
ag18
ag18
ag19
ag19
ag18
ag19
ag18
ag18
ag19
ag18
ag19
aa(lp655
g18
ag19
ag18
ag18
ag19
ag19
ag18
ag18
ag18
ag19
ag19
ag19
ag18
ag19
ag19
ag18
ag18
ag18
ag19
ag18
ag18
aa(lp656
g19
ag18
ag19
ag18
ag18
ag18
ag19
ag18
ag18
ag18
ag18
ag18
ag18
ag19
ag18
ag18
ag18
ag19
ag19
ag18
ag19
aa(lp657
g18
ag19
ag19
ag19
ag19
ag19
ag19
ag19
ag18
ag19
ag18
ag18
ag19
ag19
ag19
ag18
ag19
ag18
ag19
ag19
ag18
aa(lp658
g18
ag18
ag18
ag19
ag19
ag19
ag18
ag19
ag19
ag19
ag19
ag18
ag19
ag19
ag19
ag19
ag18
ag18
ag19
ag19
ag19
aa(lp659
g18
ag18
ag18
ag19
ag19
ag18
ag18
ag19
ag18
ag19
ag19
ag18
ag19
ag19
ag18
ag19
ag18
ag18
ag19
ag18
ag19
aa(lp660
g19
ag18
ag18
ag19
ag19
ag19
ag18
ag19
ag19
ag18
ag19
ag18
ag18
ag19
ag19
ag19
ag18
ag18
ag19
ag19
ag18
aa(lp661
g19
ag18
ag18
ag19
ag19
ag18
ag19
ag19
ag18
ag19
ag18
ag19
ag19
ag19
ag19
ag18
ag19
ag19
ag18
ag19
ag18
aa(lp662
g18
ag18
ag18
ag19
ag18
ag19
ag19
ag19
ag18
ag18
ag18
ag19
ag19
ag19
ag19
ag18
ag18
ag19
ag18
ag18
ag18
aa(lp663
g19
ag18
ag18
ag19
ag18
ag18
ag18
ag19
ag18
ag18
ag18
ag19
ag18
ag19
ag18
ag18
ag18
ag19
ag18
ag19
ag18
aa(lp664
g19
ag19
ag18
ag19
ag18
ag18
ag19
ag19
ag19
ag18
ag19
ag19
ag18
ag19
ag19
ag18
ag19
ag19
ag18
ag19
ag19
aa(lp665
g19
ag18
ag19
ag18
ag18
ag18
ag19
ag18
ag18
ag19
ag18
ag19
ag18
ag19
ag18
ag18
ag19
ag19
ag18
ag18
ag19
aa(lp666
g18
ag18
ag19
ag18
ag18
ag18
ag19
ag18
ag18
ag19
ag19
ag19
ag19
ag19
ag19
ag19
ag18
ag18
ag18
ag18
ag18
aa(lp667
g18
ag18
ag19
ag18
ag19
ag18
ag18
ag19
ag19
ag18
ag19
ag19
ag18
ag19
ag18
ag18
ag19
ag19
ag19
ag19
ag19
aa(lp668
g19
ag19
ag18
ag18
ag18
ag18
ag19
ag18
ag19
ag18
ag19
ag18
ag19
ag19
ag19
ag19
ag18
ag18
ag18
ag18
ag19
aa(lp669
g18
ag18
ag18
ag18
ag19
ag18
ag19
ag19
ag19
ag19
ag18
ag19
ag18
ag19
ag18
ag19
ag18
ag18
ag19
ag18
ag18
aa(lp670
g18
ag19
ag19
ag19
ag18
ag18
ag18
ag18
ag18
ag18
ag19
ag18
ag19
ag19
ag19
ag18
ag18
ag18
ag19
ag18
ag18
aa(lp671
g18
ag19
ag18
ag18
ag19
ag18
ag18
ag19
ag19
ag19
ag19
ag18
ag18
ag19
ag19
ag18
ag18
ag19
ag18
ag19
ag19
aa(lp672
g19
ag18
ag18
ag18
ag18
ag18
ag18
ag18
ag19
ag19
ag19
ag18
ag18
ag19
ag19
ag18
ag18
ag19
ag18
ag18
ag19
aa(lp673
g18
ag19
ag18
ag18
ag19
ag18
ag18
ag18
ag19
ag18
ag18
ag18
ag19
ag19
ag18
ag19
ag18
ag18
ag19
ag19
ag18
aa(lp674
g18
ag19
ag18
ag18
ag19
ag19
ag18
ag19
ag18
ag18
ag19
ag19
ag18
ag19
ag19
ag18
ag19
ag19
ag18
ag19
ag19
aa(lp675
g19
ag19
ag18
ag19
ag18
ag18
ag18
ag18
ag19
ag18
ag19
ag18
ag19
ag19
ag19
ag19
ag19
ag18
ag19
ag18
ag19
aa(lp676
g19
ag18
ag18
ag18
ag19
ag18
ag19
ag19
ag19
ag18
ag18
ag19
ag18
ag19
ag19
ag18
ag19
ag18
ag18
ag18
ag19
aa(lp677
g19
ag18
ag18
ag19
ag18
ag18
ag19
ag19
ag18
ag19
ag18
ag18
ag19
ag19
ag18
ag18
ag19
ag19
ag18
ag18
ag19
aa(lp678
g19
ag18
ag18
ag18
ag19
ag18
ag19
ag19
ag19
ag19
ag19
ag19
ag18
ag19
ag18
ag18
ag19
ag19
ag18
ag19
ag19
aa(lp679
g18
ag19
ag18
ag18
ag19
ag19
ag19
ag19
ag18
ag18
ag18
ag19
ag19
ag19
ag18
ag18
ag18
ag18
ag19
ag19
ag19
aa(lp680
g19
ag19
ag18
ag18
ag18
ag18
ag19
ag19
ag19
ag18
ag19
ag19
ag19
ag19
ag19
ag18
ag18
ag18
ag19
ag19
ag19
aa(lp681
g18
ag18
ag18
ag18
ag19
ag18
ag18
ag19
ag19
ag18
ag18
ag19
ag18
ag19
ag19
ag18
ag19
ag18
ag19
ag18
ag18
aa(lp682
g19
ag18
ag19
ag18
ag18
ag19
ag18
ag18
ag19
ag19
ag18
ag19
ag19
ag19
ag19
ag19
ag18
ag19
ag18
ag18
ag18
aa(lp683
g18
ag19
ag19
ag18
ag18
ag18
ag19
ag18
ag19
ag19
ag18
ag19
ag18
ag19
ag19
ag18
ag19
ag19
ag19
ag18
ag18
aa(lp684
g18
ag18
ag19
ag18
ag19
ag18
ag19
ag19
ag18
ag18
ag19
ag19
ag18
ag19
ag18
ag18
ag19
ag18
ag18
ag18
ag19
aa(lp685
g18
ag19
ag18
ag18
ag19
ag18
ag19
ag18
ag18
ag19
ag18
ag18
ag19
ag19
ag19
ag19
ag18
ag18
ag18
ag18
ag18
aa(lp686
g18
ag18
ag19
ag18
ag18
ag18
ag19
ag19
ag19
ag18
ag18
ag18
ag18
ag19
ag18
ag19
ag19
ag19
ag19
ag19
ag18
aa(lp687
g19
ag19
ag19
ag18
ag18
ag18
ag18
ag19
ag18
ag18
ag19
ag18
ag19
ag19
ag19
ag18
ag18
ag18
ag18
ag18
ag18
aa(lp688
g19
ag18
ag19
ag18
ag18
ag18
ag19
ag18
ag18
ag19
ag18
ag19
ag18
ag19
ag18
ag18
ag18
ag19
ag18
ag19
ag19
aa(lp689
g19
ag18
ag18
ag19
ag19
ag19
ag18
ag19
ag19
ag18
ag19
ag19
ag18
ag19
ag19
ag18
ag18
ag19
ag18
ag19
ag19
aa(lp690
g19
ag18
ag18
ag18
ag18
ag19
ag18
ag18
ag18
ag18
ag18
ag19
ag18
ag19
ag18
ag19
ag18
ag19
ag19
ag19
ag18
aa(lp691
g19
ag18
ag18
ag18
ag18
ag18
ag19
ag19
ag18
ag18
ag18
ag18
ag18
ag19
ag19
ag18
ag18
ag19
ag19
ag19
ag19
aa(lp692
g19
ag18
ag19
ag19
ag18
ag19
ag18
ag19
ag19
ag18
ag18
ag19
ag18
ag19
ag18
ag18
ag18
ag19
ag19
ag19
ag19
aa(lp693
g18
ag18
ag19
ag18
ag19
ag19
ag18
ag18
ag18
ag19
ag19
ag18
ag18
ag19
ag18
ag19
ag18
ag19
ag18
ag18
ag19
aa(lp694
g18
ag18
ag19
ag18
ag18
ag19
ag19
ag19
ag19
ag18
ag18
ag18
ag19
ag19
ag18
ag19
ag18
ag19
ag18
ag18
ag19
aa(lp695
g18
ag18
ag18
ag19
ag19
ag18
ag18
ag19
ag19
ag19
ag19
ag19
ag18
ag19
ag18
ag18
ag19
ag19
ag19
ag18
ag18
aa(lp696
g19
ag19
ag19
ag18
ag18
ag18
ag19
ag18
ag19
ag18
ag18
ag18
ag18
ag19
ag19
ag18
ag19
ag18
ag19
ag19
ag19
aa(lp697
g19
ag19
ag19
ag19
ag19
ag18
ag19
ag19
ag19
ag18
ag18
ag19
ag18
ag19
ag19
ag18
ag18
ag18
ag19
ag18
ag19
aa(lp698
g18
ag18
ag18
ag19
ag18
ag19
ag18
ag18
ag19
ag18
ag19
ag19
ag18
ag19
ag19
ag18
ag18
ag18
ag19
ag18
ag18
aa(lp699
g18
ag18
ag18
ag19
ag19
ag18
ag19
ag19
ag18
ag18
ag18
ag18
ag18
ag19
ag18
ag18
ag18
ag19
ag18
ag19
ag19
aa(lp700
g18
ag18
ag18
ag19
ag19
ag19
ag19
ag19
ag19
ag19
ag18
ag18
ag18
ag19
ag19
ag19
ag18
ag19
ag19
ag19
ag19
aa(lp701
g18
ag18
ag19
ag18
ag18
ag18
ag18
ag18
ag19
ag18
ag19
ag18
ag19
ag19
ag18
ag18
ag18
ag19
ag18
ag18
ag18
aa(lp702
g19
ag18
ag18
ag18
ag18
ag19
ag19
ag19
ag18
ag18
ag18
ag18
ag18
ag19
ag18
ag18
ag18
ag19
ag19
ag19
ag18
aa(lp703
g19
ag18
ag19
ag19
ag18
ag18
ag18
ag19
ag19
ag18
ag19
ag18
ag19
ag19
ag19
ag18
ag19
ag18
ag18
ag18
ag19
aa(lp704
g18
ag18
ag18
ag18
ag19
ag19
ag18
ag19
ag19
ag19
ag19
ag18
ag19
ag19
ag19
ag18
ag19
ag19
ag19
ag18
ag18
aa(lp705
g19
ag19
ag19
ag18
ag19
ag19
ag19
ag19
ag18
ag18
ag19
ag18
ag19
ag19
ag19
ag18
ag19
ag19
ag18
ag19
ag18
aa(lp706
g19
ag19
ag18
ag18
ag18
ag18
ag19
ag18
ag19
ag19
ag18
ag18
ag19
ag19
ag19
ag19
ag18
ag18
ag18
ag19
ag19
aa(lp707
g19
ag19
ag19
ag19
ag18
ag18
ag18
ag19
ag19
ag19
ag19
ag19
ag18
ag19
ag19
ag18
ag18
ag18
ag19
ag19
ag18
aa(lp708
g18
ag18
ag18
ag18
ag18
ag18
ag18
ag18
ag19
ag18
ag19
ag19
ag19
ag19
ag18
ag18
ag18
ag19
ag19
ag18
ag18
aa(lp709
g19
ag19
ag18
ag19
ag18
ag18
ag19
ag19
ag18
ag18
ag18
ag19
ag19
ag19
ag19
ag18
ag18
ag18
ag18
ag19
ag19
aa(lp710
g18
ag18
ag18
ag18
ag18
ag18
ag19
ag19
ag19
ag18
ag18
ag19
ag18
ag19
ag18
ag18
ag18
ag19
ag18
ag19
ag18
aa(lp711
g19
ag18
ag19
ag18
ag18
ag18
ag18
ag18
ag18
ag18
ag18
ag19
ag18
ag19
ag19
ag18
ag18
ag18
ag19
ag19
ag19
aa(lp712
g18
ag18
ag18
ag18
ag19
ag18
ag19
ag18
ag19
ag19
ag18
ag18
ag18
ag19
ag19
ag19
ag18
ag18
ag18
ag19
ag19
aa(lp713
g19
ag19
ag18
ag18
ag18
ag19
ag18
ag19
ag19
ag18
ag19
ag18
ag18
ag19
ag19
ag18
ag19
ag19
ag18
ag19
ag19
aa(lp714
g19
ag18
ag19
ag19
ag18
ag19
ag19
ag19
ag18
ag18
ag18
ag18
ag18
ag19
ag18
ag19
ag18
ag19
ag18
ag19
ag19
aa(lp715
g18
ag18
ag19
ag19
ag19
ag18
ag19
ag18
ag18
ag19
ag18
ag18
ag18
ag19
ag19
ag19
ag19
ag18
ag19
ag19
ag19
aa(lp716
g18
ag18
ag19
ag18
ag18
ag19
ag19
ag19
ag19
ag18
ag18
ag18
ag19
ag19
ag18
ag18
ag18
ag19
ag18
ag19
ag19
aa(lp717
g19
ag18
ag18
ag19
ag18
ag19
ag18
ag19
ag19
ag18
ag19
ag18
ag18
ag19
ag19
ag18
ag18
ag19
ag18
ag18
ag19
aa(lp718
g18
ag18
ag19
ag19
ag19
ag18
ag19
ag18
ag18
ag18
ag18
ag19
ag19
ag19
ag19
ag18
ag19
ag18
ag18
ag18
ag18
aa(lp719
g18
ag18
ag19
ag19
ag19
ag19
ag18
ag19
ag18
ag18
ag18
ag19
ag18
ag19
ag18
ag18
ag18
ag18
ag18
ag19
ag19
aa(lp720
g19
ag18
ag19
ag18
ag18
ag18
ag19
ag18
ag19
ag18
ag18
ag19
ag19
ag19
ag18
ag18
ag18
ag19
ag19
ag19
ag19
aa(lp721
g19
ag18
ag19
ag18
ag19
ag19
ag18
ag19
ag18
ag18
ag19
ag19
ag19
ag19
ag19
ag18
ag18
ag18
ag19
ag19
ag18
aa(lp722
g19
ag18
ag19
ag18
ag18
ag19
ag19
ag19
ag18
ag18
ag19
ag18
ag19
ag19
ag18
ag18
ag18
ag18
ag18
ag19
ag18
aa(lp723
g19
ag19
ag18
ag18
ag19
ag19
ag19
ag19
ag19
ag19
ag18
ag19
ag19
ag19
ag19
ag18
ag18
ag18
ag18
ag18
ag19
aa(lp724
g18
ag18
ag19
ag18
ag19
ag18
ag18
ag19
ag18
ag18
ag19
ag18
ag19
ag19
ag18
ag18
ag19
ag19
ag19
ag19
ag19
aa(lp725
g18
ag18
ag19
ag19
ag18
ag19
ag18
ag18
ag19
ag19
ag19
ag19
ag18
ag19
ag19
ag18
ag19
ag19
ag19
ag19
ag18
aa(lp726
g19
ag18
ag19
ag18
ag18
ag18
ag19
ag19
ag18
ag18
ag19
ag18
ag19
ag19
ag19
ag18
ag19
ag18
ag18
ag19
ag19
aa(lp727
g18
ag19
ag18
ag18
ag19
ag18
ag19
ag19
ag18
ag18
ag19
ag19
ag18
ag19
ag19
ag19
ag18
ag18
ag19
ag19
ag18
aa(lp728
g19
ag19
ag19
ag18
ag18
ag18
ag18
ag18
ag19
ag18
ag19
ag18
ag19
ag19
ag19
ag19
ag19
ag18
ag19
ag19
ag19
aa(lp729
g19
ag19
ag18
ag19
ag18
ag18
ag18
ag18
ag19
ag18
ag18
ag19
ag19
ag19
ag19
ag18
ag19
ag18
ag18
ag18
ag19
aa(lp730
g19
ag19
ag18
ag19
ag18
ag18
ag19
ag18
ag19
ag19
ag19
ag19
ag18
ag19
ag18
ag19
ag18
ag18
ag19
ag19
ag18
aa(lp731
g19
ag18
ag18
ag19
ag18
ag18
ag18
ag18
ag18
ag19
ag19
ag19
ag18
ag19
ag19
ag18
ag18
ag18
ag18
ag19
ag19
aa(lp732
g19
ag19
ag19
ag18
ag18
ag18
ag19
ag19
ag19
ag18
ag18
ag18
ag19
ag19
ag19
ag19
ag19
ag18
ag19
ag18
ag19
aa(lp733
g18
ag18
ag18
ag19
ag18
ag19
ag19
ag19
ag18
ag18
ag19
ag19
ag18
ag19
ag19
ag18
ag19
ag19
ag19
ag18
ag18
aa(lp734
g18
ag19
ag18
ag18
ag19
ag18
ag18
ag19
ag19
ag18
ag18
ag19
ag18
ag19
ag19
ag18
ag18
ag19
ag19
ag19
ag19
aa(lp735
g19
ag18
ag19
ag18
ag18
ag18
ag19
ag19
ag19
ag18
ag18
ag19
ag19
ag19
ag18
ag18
ag19
ag19
ag18
ag19
ag18
aa(lp736
g18
ag19
ag18
ag19
ag19
ag18
ag19
ag18
ag19
ag19
ag19
ag19
ag18
ag19
ag18
ag18
ag18
ag18
ag18
ag19
ag18
aa(lp737
g18
ag18
ag18
ag19
ag19
ag19
ag19
ag19
ag18
ag19
ag18
ag18
ag18
ag19
ag18
ag19
ag18
ag18
ag18
ag19
ag19
aa(lp738
g18
ag18
ag18
ag18
ag19
ag18
ag18
ag18
ag18
ag18
ag19
ag18
ag18
ag19
ag19
ag19
ag18
ag18
ag18
ag19
ag19
aa(lp739
g19
ag18
ag18
ag18
ag19
ag18
ag19
ag18
ag18
ag18
ag19
ag18
ag18
ag19
ag19
ag19
ag19
ag18
ag19
ag18
ag18
aa(lp740
g19
ag18
ag18
ag18
ag18
ag18
ag19
ag19
ag18
ag19
ag18
ag18
ag19
ag19
ag19
ag18
ag19
ag18
ag18
ag19
ag19
aa(lp741
g18
ag19
ag18
ag18
ag18
ag19
ag19
ag19
ag19
ag18
ag18
ag18
ag18
ag19
ag18
ag19
ag19
ag19
ag18
ag18
ag19
aa(lp742
g19
ag19
ag18
ag18
ag19
ag18
ag19
ag19
ag18
ag19
ag19
ag18
ag18
ag19
ag18
ag19
ag19
ag18
ag18
ag18
ag18
aa(lp743
g18
ag19
ag18
ag18
ag18
ag19
ag19
ag18
ag19
ag18
ag19
ag18
ag18
ag19
ag19
ag19
ag19
ag19
ag19
ag18
ag19
aa(lp744
g18
ag19
ag18
ag18
ag19
ag18
ag19
ag19
ag18
ag19
ag18
ag19
ag18
ag19
ag18
ag18
ag19
ag19
ag19
ag19
ag19
aa(lp745
g19
ag18
ag18
ag19
ag18
ag18
ag18
ag18
ag18
ag18
ag19
ag19
ag18
ag19
ag18
ag18
ag19
ag19
ag18
ag19
ag18
aa(lp746
g18
ag19
ag19
ag18
ag19
ag19
ag19
ag19
ag18
ag18
ag18
ag19
ag19
ag19
ag19
ag18
ag19
ag18
ag19
ag19
ag19
aa(lp747
g19
ag19
ag19
ag18
ag19
ag18
ag18
ag19
ag18
ag18
ag18
ag18
ag19
ag19
ag19
ag18
ag18
ag19
ag19
ag18
ag18
aa(lp748
g18
ag19
ag18
ag19
ag19
ag19
ag19
ag19
ag19
ag19
ag19
ag19
ag18
ag19
ag19
ag18
ag19
ag18
ag18
ag18
ag19
aa(lp749
g19
ag18
ag18
ag18
ag19
ag19
ag19
ag19
ag19
ag19
ag19
ag19
ag19
ag19
ag19
ag18
ag18
ag18
ag18
ag19
ag19
aa(lp750
g19
ag19
ag18
ag18
ag18
ag19
ag19
ag19
ag18
ag18
ag18
ag19
ag18
ag19
ag18
ag19
ag18
ag18
ag19
ag18
ag18
aa(lp751
g18
ag18
ag18
ag19
ag19
ag19
ag19
ag18
ag19
ag19
ag18
ag18
ag18
ag19
ag19
ag19
ag18
ag18
ag18
ag18
ag19
aa(lp752
g19
ag19
ag18
ag19
ag18
ag18
ag19
ag19
ag19
ag18
ag19
ag19
ag18
ag19
ag19
ag18
ag19
ag18
ag19
ag18
ag19
aa(lp753
g18
ag19
ag18
ag19
ag19
ag19
ag19
ag18
ag19
ag18
ag18
ag18
ag19
ag19
ag19
ag19
ag18
ag18
ag18
ag19
ag18
aa(lp754
g19
ag18
ag19
ag18
ag19
ag19
ag19
ag19
ag19
ag18
ag19
ag19
ag19
ag19
ag18
ag18
ag18
ag19
ag18
ag19
ag19
aa(lp755
g19
ag18
ag18
ag18
ag19
ag18
ag19
ag19
ag19
ag19
ag18
ag19
ag18
ag19
ag18
ag18
ag18
ag18
ag18
ag19
ag19
aa(lp756
g18
ag19
ag18
ag18
ag19
ag19
ag18
ag19
ag19
ag19
ag19
ag18
ag19
ag19
ag19
ag18
ag19
ag18
ag19
ag18
ag19
aa(lp757
g18
ag19
ag18
ag18
ag19
ag19
ag19
ag18
ag19
ag19
ag19
ag18
ag18
ag19
ag18
ag19
ag18
ag18
ag18
ag18
ag19
aa(lp758
g18
ag18
ag18
ag19
ag19
ag18
ag18
ag19
ag18
ag18
ag19
ag18
ag19
ag19
ag19
ag19
ag18
ag18
ag19
ag18
ag19
aa(lp759
g18
ag19
ag18
ag18
ag19
ag18
ag18
ag18
ag19
ag18
ag19
ag18
ag19
ag19
ag19
ag19
ag18
ag18
ag19
ag18
ag19
aa(lp760
g18
ag19
ag18
ag19
ag19
ag19
ag18
ag18
ag18
ag18
ag19
ag18
ag19
ag19
ag18
ag18
ag19
ag19
ag19
ag18
ag18
aa(lp761
g18
ag19
ag18
ag18
ag19
ag19
ag18
ag18
ag19
ag18
ag19
ag18
ag19
ag19
ag19
ag19
ag19
ag19
ag19
ag18
ag19
aa(lp762
g19
ag18
ag18
ag18
ag18
ag18
ag19
ag19
ag19
ag18
ag18
ag18
ag18
ag19
ag19
ag18
ag19
ag19
ag18
ag19
ag19
aa(lp763
g19
ag19
ag19
ag18
ag19
ag19
ag19
ag18
ag18
ag19
ag19
ag18
ag18
ag19
ag18
ag18
ag18
ag19
ag18
ag18
ag18
aa(lp764
g18
ag18
ag18
ag18
ag19
ag18
ag19
ag18
ag19
ag19
ag18
ag19
ag19
ag19
ag19
ag19
ag18
ag18
ag18
ag19
ag18
aa(lp765
g19
ag19
ag19
ag19
ag19
ag18
ag19
ag18
ag19
ag18
ag18
ag18
ag18
ag19
ag19
ag18
ag18
ag18
ag19
ag18
ag18
aa(lp766
g18
ag18
ag18
ag19
ag19
ag19
ag19
ag18
ag18
ag19
ag19
ag18
ag18
ag19
ag18
ag19
ag18
ag19
ag18
ag18
ag19
aa(lp767
g18
ag19
ag18
ag18
ag19
ag19
ag19
ag18
ag19
ag19
ag19
ag18
ag19
ag19
ag18
ag19
ag19
ag19
ag18
ag18
ag19
aa(lp768
g19
ag18
ag19
ag18
ag18
ag18
ag19
ag18
ag19
ag19
ag18
ag19
ag18
ag19
ag18
ag18
ag18
ag19
ag18
ag19
ag19
aa(lp769
g19
ag18
ag18
ag19
ag18
ag18
ag18
ag19
ag18
ag18
ag19
ag19
ag19
ag19
ag19
ag18
ag18
ag18
ag19
ag18
ag19
aa(lp770
g18
ag18
ag18
ag19
ag19
ag18
ag19
ag19
ag18
ag18
ag18
ag18
ag19
ag19
ag19
ag18
ag18
ag19
ag19
ag18
ag19
aa(lp771
g19
ag18
ag18
ag19
ag19
ag18
ag18
ag19
ag19
ag19
ag18
ag19
ag18
ag19
ag19
ag18
ag19
ag18
ag18
ag19
ag19
aa(lp772
g18
ag18
ag18
ag19
ag19
ag18
ag19
ag19
ag19
ag18
ag19
ag18
ag18
ag19
ag18
ag18
ag19
ag18
ag18
ag18
ag19
aa(lp773
g19
ag18
ag19
ag18
ag18
ag18
ag18
ag19
ag18
ag18
ag18
ag19
ag19
ag19
ag19
ag19
ag19
ag18
ag19
ag19
ag18
aa(lp774
g19
ag19
ag18
ag18
ag18
ag18
ag18
ag19
ag19
ag18
ag18
ag19
ag19
ag19
ag19
ag18
ag19
ag18
ag19
ag19
ag19
aa(lp775
g19
ag18
ag18
ag18
ag19
ag19
ag19
ag19
ag19
ag19
ag19
ag19
ag19
ag19
ag18
ag18
ag18
ag19
ag18
ag19
ag19
aa(lp776
g19
ag19
ag19
ag18
ag18
ag19
ag18
ag18
ag19
ag19
ag18
ag18
ag19
ag19
ag19
ag18
ag19
ag18
ag18
ag19
ag18
aa(lp777
g18
ag19
ag19
ag18
ag19
ag19
ag19
ag18
ag19
ag18
ag19
ag18
ag18
ag19
ag19
ag19
ag19
ag18
ag19
ag18
ag19
aa(lp778
g18
ag18
ag18
ag18
ag18
ag19
ag18
ag19
ag18
ag19
ag19
ag19
ag19
ag19
ag18
ag18
ag19
ag18
ag19
ag19
ag18
aa(lp779
g18
ag19
ag18
ag18
ag19
ag19
ag18
ag19
ag19
ag19
ag19
ag18
ag19
ag19
ag18
ag18
ag18
ag18
ag18
ag18
ag19
aa(lp780
g19
ag18
ag18
ag18
ag19
ag18
ag18
ag19
ag18
ag18
ag19
ag18
ag18
ag19
ag19
ag19
ag19
ag18
ag18
ag18
ag18
aa(lp781
g18
ag19
ag18
ag19
ag18
ag19
ag18
ag19
ag19
ag18
ag19
ag18
ag18
ag19
ag19
ag18
ag19
ag19
ag18
ag18
ag19
aa(lp782
g19
ag18
ag19
ag19
ag19
ag19
ag19
ag19
ag19
ag18
ag18
ag19
ag18
ag19
ag18
ag18
ag19
ag18
ag19
ag19
ag18
aa(lp783
g18
ag19
ag18
ag19
ag19
ag19
ag19
ag18
ag19
ag18
ag19
ag18
ag19
ag19
ag19
ag19
ag18
ag19
ag19
ag18
ag19
aa(lp784
g19
ag18
ag18
ag19
ag18
ag19
ag18
ag19
ag19
ag18
ag19
ag19
ag19
ag19
ag18
ag18
ag19
ag18
ag18
ag19
ag18
aa(lp785
g19
ag18
ag18
ag19
ag18
ag18
ag19
ag18
ag18
ag19
ag18
ag18
ag18
ag19
ag19
ag18
ag19
ag19
ag18
ag18
ag19
aa(lp786
g19
ag19
ag18
ag19
ag18
ag18
ag19
ag19
ag18
ag18
ag18
ag19
ag19
ag19
ag19
ag18
ag19
ag18
ag18
ag19
ag18
aa(lp787
g19
ag18
ag18
ag18
ag18
ag19
ag19
ag18
ag18
ag18
ag19
ag18
ag18
ag19
ag19
ag18
ag18
ag19
ag19
ag18
ag19
aa(lp788
g18
ag18
ag18
ag18
ag19
ag19
ag19
ag18
ag19
ag18
ag18
ag18
ag19
ag19
ag19
ag18
ag18
ag19
ag19
ag18
ag18
aa(lp789
g19
ag19
ag18
ag18
ag18
ag18
ag19
ag19
ag19
ag19
ag18
ag18
ag19
ag19
ag19
ag19
ag19
ag18
ag18
ag18
ag19
aa(lp790
g19
ag19
ag19
ag18
ag18
ag18
ag18
ag19
ag18
ag18
ag18
ag19
ag18
ag19
ag19
ag18
ag18
ag19
ag19
ag19
ag18
aa(lp791
g18
ag18
ag18
ag19
ag19
ag19
ag18
ag19
ag18
ag19
ag18
ag19
ag18
ag19
ag18
ag18
ag18
ag18
ag18
ag18
ag18
aa(lp792
g18
ag18
ag19
ag18
ag19
ag18
ag19
ag18
ag19
ag18
ag19
ag18
ag19
ag19
ag19
ag19
ag18
ag18
ag19
ag19
ag19
aa(lp793
g18
ag19
ag18
ag19
ag19
ag18
ag19
ag18
ag18
ag19
ag18
ag18
ag18
ag19
ag18
ag18
ag19
ag19
ag19
ag18
ag18
aa(lp794
g19
ag19
ag18
ag19
ag18
ag19
ag18
ag19
ag19
ag18
ag19
ag19
ag18
ag19
ag19
ag18
ag18
ag19
ag18
ag19
ag19
aa(lp795
g19
ag18
ag19
ag19
ag19
ag18
ag19
ag18
ag19
ag19
ag19
ag18
ag19
ag19
ag19
ag18
ag18
ag18
ag18
ag18
ag18
aa(lp796
g18
ag19
ag19
ag18
ag18
ag19
ag18
ag19
ag19
ag18
ag19
ag19
ag18
ag19
ag18
ag19
ag19
ag19
ag18
ag18
ag18
aa(lp797
g19
ag18
ag18
ag19
ag18
ag18
ag18
ag18
ag18
ag18
ag18
ag18
ag19
ag19
ag18
ag19
ag18
ag18
ag18
ag18
ag18
aa(lp798
g18
ag18
ag19
ag18
ag19
ag19
ag19
ag19
ag18
ag18
ag19
ag18
ag18
ag19
ag18
ag19
ag18
ag19
ag18
ag19
ag19
aa(lp799
g19
ag19
ag18
ag19
ag18
ag19
ag18
ag19
ag19
ag19
ag19
ag18
ag19
ag19
ag19
ag19
ag18
ag19
ag18
ag19
ag19
aa(lp800
g19
ag18
ag19
ag18
ag18
ag18
ag19
ag19
ag18
ag18
ag18
ag18
ag19
ag19
ag18
ag18
ag18
ag19
ag18
ag19
ag19
aa(lp801
g19
ag18
ag18
ag19
ag18
ag18
ag19
ag18
ag19
ag18
ag19
ag18
ag18
ag19
ag19
ag19
ag18
ag18
ag18
ag18
ag19
aa(lp802
g19
ag19
ag19
ag18
ag18
ag18
ag18
ag19
ag19
ag18
ag18
ag19
ag19
ag19
ag18
ag19
ag19
ag18
ag19
ag19
ag18
aa(lp803
g18
ag18
ag18
ag19
ag19
ag19
ag18
ag19
ag18
ag18
ag19
ag18
ag19
ag19
ag19
ag19
ag18
ag19
ag18
ag19
ag19
aa(lp804
g18
ag19
ag18
ag18
ag19
ag18
ag19
ag19
ag19
ag19
ag19
ag18
ag18
ag19
ag18
ag19
ag18
ag18
ag18
ag18
ag19
aa(lp805
g19
ag18
ag19
ag19
ag18
ag18
ag18
ag18
ag18
ag18
ag18
ag19
ag18
ag19
ag18
ag18
ag18
ag19
ag19
ag19
ag19
aa(lp806
g19
ag18
ag19
ag19
ag18
ag18
ag19
ag19
ag18
ag18
ag19
ag19
ag18
ag19
ag19
ag18
ag18
ag18
ag19
ag19
ag19
aa(lp807
g18
ag18
ag19
ag18
ag18
ag19
ag19
ag19
ag18
ag19
ag18
ag18
ag18
ag19
ag19
ag19
ag18
ag18
ag19
ag19
ag18
aa(lp808
g19
ag18
ag19
ag19
ag18
ag18
ag19
ag18
ag18
ag19
ag18
ag19
ag18
ag19
ag19
ag18
ag18
ag18
ag18
ag18
ag19
aa(lp809
g18
ag18
ag19
ag19
ag18
ag18
ag19
ag18
ag19
ag18
ag18
ag19
ag18
ag19
ag18
ag19
ag19
ag18
ag18
ag19
ag18
aa(lp810
g18
ag18
ag19
ag19
ag19
ag18
ag19
ag18
ag18
ag19
ag18
ag18
ag18
ag19
ag18
ag19
ag19
ag18
ag19
ag19
ag19
aa(lp811
g18
ag19
ag18
ag18
ag19
ag18
ag19
ag18
ag19
ag18
ag19
ag18
ag19
ag19
ag18
ag18
ag18
ag18
ag19
ag19
ag18
aa(lp812
g18
ag19
ag18
ag19
ag19
ag18
ag19
ag19
ag19
ag18
ag18
ag18
ag19
ag19
ag18
ag18
ag18
ag18
ag18
ag19
ag19
aa(lp813
g18
ag18
ag19
ag19
ag19
ag18
ag18
ag18
ag18
ag18
ag19
ag18
ag18
ag19
ag19
ag19
ag18
ag18
ag18
ag19
ag19
aa(lp814
g19
ag19
ag18
ag18
ag18
ag18
ag18
ag18
ag18
ag18
ag18
ag18
ag19
ag19
ag18
ag19
ag19
ag18
ag18
ag18
ag18
aa(lp815
g18
ag19
ag18
ag19
ag18
ag19
ag19
ag18
ag18
ag19
ag18
ag19
ag18
ag19
ag18
ag18
ag18
ag19
ag19
ag18
ag19
aa(lp816
g18
ag19
ag18
ag18
ag19
ag18
ag19
ag18
ag18
ag19
ag19
ag19
ag18
ag19
ag19
ag19
ag18
ag19
ag18
ag18
ag18
aa(lp817
g19
ag18
ag18
ag19
ag18
ag18
ag19
ag18
ag19
ag18
ag19
ag19
ag19
ag19
ag19
ag18
ag19
ag19
ag18
ag19
ag19
aa(lp818
g19
ag19
ag18
ag19
ag18
ag18
ag19
ag18
ag19
ag18
ag18
ag18
ag19
ag19
ag18
ag18
ag19
ag19
ag19
ag18
ag19
aa(lp819
g18
ag19
ag18
ag19
ag18
ag19
ag19
ag18
ag18
ag19
ag19
ag19
ag19
ag19
ag19
ag19
ag19
ag19
ag18
ag18
ag18
aa(lp820
g19
ag18
ag18
ag19
ag18
ag18
ag18
ag18
ag19
ag18
ag18
ag19
ag18
ag19
ag19
ag18
ag18
ag19
ag18
ag19
ag19
aa(lp821
g18
ag19
ag18
ag18
ag18
ag18
ag18
ag19
ag19
ag19
ag18
ag19
ag19
ag19
ag18
ag18
ag19
ag18
ag18
ag18
ag18
aa(lp822
g19
ag19
ag18
ag18
ag19
ag18
ag19
ag18
ag18
ag19
ag18
ag18
ag19
ag19
ag18
ag18
ag18
ag18
ag19
ag18
ag18
aa(lp823
g19
ag18
ag19
ag19
ag18
ag19
ag19
ag19
ag19
ag18
ag18
ag19
ag19
ag19
ag18
ag18
ag18
ag19
ag18
ag19
ag19
aa(lp824
g19
ag19
ag19
ag19
ag19
ag19
ag19
ag19
ag19
ag19
ag19
ag19
ag18
ag19
ag19
ag19
ag18
ag19
ag18
ag19
ag18
aa(lp825
g19
ag18
ag18
ag19
ag19
ag19
ag19
ag19
ag19
ag18
ag19
ag19
ag18
ag19
ag19
ag18
ag18
ag18
ag18
ag19
ag19
aa(lp826
g18
ag18
ag18
ag19
ag19
ag18
ag18
ag18
ag18
ag19
ag19
ag19
ag18
ag19
ag18
ag19
ag18
ag18
ag18
ag18
ag18
aa(lp827
g19
ag19
ag19
ag19
ag18
ag18
ag19
ag19
ag19
ag18
ag18
ag18
ag19
ag19
ag19
ag18
ag18
ag18
ag19
ag18
ag19
aa(lp828
g19
ag19
ag18
ag19
ag18
ag19
ag19
ag19
ag19
ag18
ag18
ag18
ag18
ag19
ag19
ag19
ag18
ag19
ag19
ag18
ag19
aa(lp829
g19
ag18
ag19
ag18
ag19
ag19
ag18
ag19
ag19
ag18
ag19
ag18
ag18
ag19
ag18
ag18
ag18
ag19
ag19
ag19
ag18
aa(lp830
g18
ag18
ag19
ag19
ag18
ag18
ag18
ag18
ag18
ag18
ag18
ag18
ag18
ag19
ag19
ag19
ag18
ag18
ag18
ag19
ag18
aa(lp831
g18
ag19
ag18
ag18
ag18
ag19
ag19
ag18
ag19
ag19
ag18
ag18
ag18
ag19
ag19
ag19
ag19
ag19
ag18
ag18
ag19
aa(lp832
g19
ag18
ag18
ag19
ag18
ag19
ag19
ag19
ag19
ag18
ag19
ag18
ag18
ag19
ag19
ag18
ag18
ag19
ag18
ag19
ag19
aa(lp833
g19
ag18
ag18
ag18
ag18
ag19
ag18
ag18
ag18
ag18
ag19
ag19
ag19
ag19
ag19
ag19
ag19
ag19
ag19
ag18
ag18
aa(lp834
g19
ag19
ag19
ag19
ag19
ag19
ag19
ag19
ag18
ag18
ag18
ag19
ag19
ag19
ag19
ag18
ag18
ag18
ag19
ag18
ag19
aa(lp835
g18
ag19
ag18
ag19
ag19
ag18
ag18
ag19
ag18
ag19
ag18
ag18
ag18
ag19
ag18
ag19
ag19
ag19
ag19
ag19
ag18
aa(lp836
g19
ag19
ag18
ag19
ag18
ag19
ag19
ag18
ag19
ag18
ag18
ag18
ag19
ag19
ag18
ag19
ag19
ag19
ag19
ag18
ag19
aa(lp837
g19
ag18
ag18
ag18
ag18
ag18
ag18
ag19
ag19
ag19
ag18
ag19
ag18
ag19
ag19
ag19
ag18
ag19
ag19
ag19
ag18
aa(lp838
g19
ag19
ag19
ag18
ag18
ag18
ag19
ag18
ag19
ag18
ag18
ag19
ag18
ag19
ag19
ag18
ag19
ag18
ag18
ag19
ag19
aa(lp839
g19
ag19
ag19
ag18
ag19
ag19
ag19
ag19
ag19
ag19
ag19
ag18
ag18
ag19
ag18
ag18
ag18
ag18
ag19
ag19
ag18
aa(lp840
g18
ag19
ag19
ag18
ag19
ag19
ag19
ag18
ag19
ag19
ag18
ag18
ag18
ag19
ag19
ag19
ag18
ag18
ag19
ag18
ag19
aa(lp841
g19
ag18
ag18
ag19
ag19
ag19
ag18
ag19
ag19
ag19
ag18
ag19
ag18
ag19
ag19
ag18
ag19
ag18
ag18
ag19
ag18
aa(lp842
g18
ag19
ag19
ag18
ag19
ag18
ag19
ag18
ag19
ag19
ag18
ag18
ag18
ag19
ag19
ag19
ag18
ag18
ag18
ag19
ag19
aa(lp843
g18
ag19
ag19
ag18
ag18
ag18
ag19
ag18
ag18
ag19
ag18
ag18
ag19
ag19
ag18
ag19
ag19
ag18
ag19
ag19
ag18
aa(lp844
g19
ag18
ag18
ag18
ag19
ag19
ag19
ag18
ag18
ag19
ag19
ag19
ag19
ag19
ag18
ag18
ag18
ag19
ag18
ag19
ag18
aa(lp845
g19
ag18
ag19
ag18
ag18
ag18
ag19
ag18
ag19
ag19
ag18
ag19
ag19
ag19
ag19
ag18
ag19
ag18
ag18
ag18
ag19
aa(lp846
g19
ag18
ag19
ag18
ag19
ag18
ag19
ag18
ag18
ag19
ag19
ag18
ag18
ag19
ag19
ag18
ag18
ag18
ag18
ag19
ag18
aa(lp847
g19
ag19
ag18
ag18
ag18
ag18
ag19
ag19
ag19
ag18
ag19
ag19
ag19
ag19
ag19
ag18
ag18
ag18
ag19
ag18
ag19
aa(lp848
g18
ag19
ag18
ag19
ag19
ag19
ag19
ag19
ag19
ag19
ag19
ag18
ag18
ag19
ag19
ag19
ag18
ag19
ag18
ag18
ag19
aa(lp849
g19
ag19
ag19
ag18
ag18
ag18
ag18
ag19
ag19
ag18
ag18
ag19
ag19
ag19
ag19
ag19
ag18
ag19
ag19
ag19
ag18
aa(lp850
g18
ag18
ag18
ag19
ag19
ag18
ag19
ag18
ag19
ag19
ag18
ag18
ag19
ag19
ag18
ag19
ag18
ag18
ag19
ag18
ag19
aa(lp851
g18
ag19
ag18
ag19
ag18
ag19
ag19
ag18
ag18
ag18
ag19
ag19
ag18
ag19
ag19
ag18
ag18
ag19
ag19
ag18
ag19
aa(lp852
g19
ag18
ag18
ag19
ag18
ag19
ag19
ag19
ag18
ag18
ag19
ag19
ag19
ag19
ag18
ag18
ag18
ag19
ag19
ag19
ag18
aa(lp853
g19
ag19
ag19
ag18
ag19
ag19
ag18
ag19
ag18
ag18
ag19
ag19
ag18
ag19
ag19
ag18
ag19
ag18
ag18
ag18
ag19
aa(lp854
g18
ag18
ag18
ag19
ag18
ag19
ag18
ag18
ag18
ag19
ag18
ag19
ag18
ag19
ag19
ag18
ag18
ag19
ag19
ag18
ag19
aa(lp855
g18
ag18
ag18
ag19
ag18
ag18
ag19
ag19
ag19
ag18
ag19
ag18
ag19
ag19
ag18
ag19
ag19
ag18
ag19
ag18
ag18
aa(lp856
g19
ag18
ag19
ag19
ag18
ag19
ag19
ag18
ag18
ag19
ag18
ag18
ag18
ag19
ag18
ag19
ag18
ag19
ag18
ag18
ag19
aa(lp857
g18
ag19
ag18
ag19
ag19
ag19
ag18
ag18
ag18
ag18
ag18
ag19
ag18
ag19
ag18
ag19
ag18
ag19
ag19
ag19
ag18
aa(lp858
g19
ag18
ag18
ag19
ag18
ag19
ag18
ag19
ag18
ag18
ag19
ag18
ag19
ag19
ag19
ag19
ag18
ag19
ag19
ag18
ag19
aa(lp859
g19
ag19
ag18
ag19
ag18
ag18
ag18
ag19
ag18
ag19
ag18
ag19
ag18
ag19
ag19
ag18
ag19
ag19
ag18
ag18
ag19
aa(lp860
g19
ag18
ag18
ag19
ag19
ag19
ag18
ag19
ag19
ag18
ag18
ag19
ag18
ag19
ag19
ag18
ag18
ag18
ag19
ag19
ag19
aa(lp861
g18
ag18
ag18
ag18
ag18
ag19
ag18
ag19
ag18
ag18
ag19
ag18
ag19
ag19
ag18
ag18
ag18
ag19
ag19
ag18
ag18
aa(lp862
g19
ag18
ag18
ag18
ag18
ag18
ag18
ag19
ag19
ag18
ag18
ag19
ag18
ag19
ag19
ag18
ag18
ag19
ag19
ag18
ag19
aa(lp863
g18
ag19
ag18
ag19
ag19
ag18
ag18
ag19
ag18
ag18
ag19
ag19
ag19
ag19
ag19
ag18
ag18
ag19
ag19
ag19
ag18
aa(lp864
g19
ag18
ag18
ag18
ag18
ag18
ag19
ag18
ag18
ag19
ag18
ag18
ag18
ag19
ag18
ag18
ag19
ag18
ag18
ag18
ag19
aa(lp865
g18
ag19
ag18
ag18
ag18
ag19
ag18
ag19
ag18
ag18
ag19
ag18
ag18
ag19
ag18
ag19
ag18
ag18
ag18
ag19
ag18
aa(lp866
g19
ag19
ag19
ag18
ag19
ag19
ag18
ag19
ag18
ag18
ag19
ag19
ag19
ag19
ag19
ag18
ag19
ag18
ag19
ag19
ag19
aa(lp867
g18
ag18
ag18
ag19
ag19
ag18
ag18
ag19
ag18
ag18
ag19
ag18
ag18
ag19
ag18
ag19
ag19
ag19
ag18
ag18
ag18
aa(lp868
g18
ag19
ag18
ag18
ag19
ag19
ag19
ag19
ag18
ag19
ag19
ag19
ag19
ag19
ag19
ag18
ag19
ag19
ag18
ag19
ag19
aa(lp869
g19
ag18
ag18
ag19
ag18
ag19
ag18
ag18
ag19
ag18
ag19
ag18
ag19
ag19
ag19
ag19
ag18
ag19
ag19
ag18
ag19
aa(lp870
g18
ag19
ag18
ag18
ag19
ag18
ag19
ag19
ag19
ag18
ag18
ag18
ag18
ag19
ag18
ag18
ag18
ag18
ag18
ag19
ag19
aa(lp871
g18
ag18
ag19
ag18
ag18
ag18
ag19
ag19
ag19
ag19
ag18
ag18
ag18
ag19
ag18
ag19
ag19
ag18
ag19
ag19
ag18
aa(lp872
g18
ag19
ag19
ag19
ag19
ag18
ag18
ag19
ag18
ag18
ag18
ag19
ag18
ag19
ag19
ag18
ag19
ag18
ag18
ag19
ag19
aa(lp873
g18
ag18
ag18
ag19
ag19
ag18
ag19
ag18
ag19
ag18
ag18
ag18
ag18
ag19
ag18
ag18
ag19
ag19
ag19
ag18
ag18
aa(lp874
g19
ag19
ag18
ag19
ag18
ag19
ag19
ag19
ag19
ag18
ag18
ag19
ag19
ag19
ag19
ag18
ag18
ag19
ag18
ag19
ag19
aa(lp875
g18
ag19
ag19
ag19
ag19
ag18
ag19
ag18
ag18
ag18
ag18
ag19
ag18
ag19
ag19
ag19
ag18
ag18
ag19
ag19
ag18
aa(lp876
g18
ag18
ag19
ag18
ag18
ag18
ag18
ag18
ag19
ag18
ag18
ag18
ag18
ag19
ag19
ag19
ag18
ag19
ag18
ag18
ag18
aa(lp877
g19
ag18
ag18
ag18
ag19
ag18
ag19
ag19
ag18
ag19
ag18
ag19
ag18
ag19
ag18
ag18
ag19
ag18
ag18
ag19
ag19
aa(lp878
g19
ag18
ag18
ag19
ag19
ag19
ag19
ag19
ag18
ag19
ag19
ag19
ag18
ag19
ag19
ag19
ag18
ag18
ag19
ag18
ag18
aa(lp879
g19
ag18
ag19
ag19
ag18
ag18
ag19
ag19
ag19
ag18
ag18
ag19
ag19
ag19
ag18
ag18
ag18
ag19
ag18
ag18
ag19
aa(lp880
g19
ag18
ag19
ag18
ag18
ag18
ag19
ag18
ag19
ag18
ag18
ag19
ag19
ag19
ag18
ag18
ag18
ag19
ag19
ag18
ag19
aa(lp881
g19
ag18
ag19
ag18
ag19
ag19
ag19
ag19
ag18
ag18
ag19
ag19
ag19
ag19
ag18
ag18
ag18
ag18
ag19
ag18
ag19
aa(lp882
g18
ag18
ag18
ag19
ag18
ag18
ag19
ag19
ag19
ag18
ag18
ag18
ag19
ag19
ag19
ag18
ag19
ag19
ag18
ag18
ag18
aa(lp883
g18
ag19
ag19
ag19
ag19
ag18
ag19
ag19
ag19
ag18
ag19
ag18
ag19
ag19
ag19
ag18
ag18
ag18
ag19
ag19
ag19
aa(lp884
g19
ag19
ag19
ag18
ag18
ag18
ag19
ag18
ag18
ag19
ag18
ag19
ag19
ag19
ag18
ag18
ag19
ag18
ag19
ag18
ag18
aa(lp885
g19
ag18
ag18
ag18
ag19
ag19
ag19
ag19
ag18
ag18
ag18
ag19
ag18
ag19
ag19
ag18
ag18
ag18
ag18
ag19
ag19
aa(lp886
g18
ag18
ag18
ag19
ag19
ag18
ag19
ag18
ag19
ag18
ag19
ag19
ag18
ag19
ag18
ag19
ag19
ag18
ag18
ag19
ag18
aa(lp887
g18
ag18
ag19
ag18
ag19
ag18
ag19
ag19
ag18
ag18
ag18
ag18
ag19
ag19
ag18
ag18
ag18
ag18
ag19
ag18
ag19
aa(lp888
g18
ag18
ag18
ag19
ag18
ag19
ag18
ag19
ag19
ag18
ag19
ag19
ag18
ag19
ag19
ag18
ag18
ag19
ag18
ag19
ag19
aa(lp889
g18
ag18
ag19
ag19
ag19
ag18
ag18
ag19
ag19
ag18
ag19
ag19
ag18
ag19
ag18
ag18
ag19
ag18
ag19
ag19
ag19
aa(lp890
g19
ag18
ag19
ag18
ag18
ag18
ag19
ag19
ag19
ag18
ag18
ag18
ag18
ag19
ag18
ag19
ag18
ag18
ag18
ag18
ag19
aa(lp891
g18
ag18
ag18
ag18
ag18
ag19
ag19
ag19
ag18
ag18
ag18
ag18
ag18
ag19
ag19
ag19
ag18
ag19
ag18
ag18
ag19
aa(lp892
g18
ag18
ag19
ag19
ag19
ag19
ag19
ag18
ag19
ag18
ag19
ag19
ag18
ag19
ag19
ag19
ag18
ag18
ag19
ag19
ag18
aa(lp893
g19
ag18
ag19
ag18
ag18
ag18
ag19
ag19
ag18
ag18
ag19
ag19
ag19
ag19
ag19
ag18
ag19
ag18
ag18
ag18
ag19
aa(lp894
g19
ag18
ag19
ag19
ag18
ag18
ag19
ag18
ag18
ag18
ag19
ag19
ag18
ag19
ag18
ag18
ag18
ag18
ag18
ag18
ag18
aa(lp895
g19
ag18
ag19
ag18
ag19
ag18
ag19
ag18
ag19
ag18
ag18
ag19
ag19
ag19
ag18
ag18
ag19
ag19
ag19
ag19
ag18
aa(lp896
g19
ag19
ag18
ag19
ag18
ag18
ag18
ag19
ag18
ag18
ag19
ag19
ag19
ag19
ag19
ag18
ag19
ag19
ag18
ag19
ag19
aa(lp897
g19
ag19
ag18
ag18
ag18
ag18
ag18
ag19
ag19
ag18
ag18
ag19
ag18
ag19
ag18
ag18
ag18
ag18
ag18
ag19
ag18
aa(lp898
g19
ag18
ag18
ag19
ag18
ag18
ag18
ag19
ag18
ag18
ag19
ag18
ag19
ag19
ag19
ag19
ag19
ag18
ag18
ag19
ag19
aa(lp899
g18
ag18
ag18
ag18
ag18
ag18
ag18
ag18
ag19
ag18
ag19
ag18
ag18
ag19
ag18
ag18
ag18
ag18
ag19
ag18
ag18
aa(lp900
g18
ag18
ag19
ag19
ag18
ag18
ag18
ag19
ag18
ag18
ag18
ag18
ag18
ag19
ag18
ag18
ag18
ag19
ag18
ag19
ag18
aa(lp901
g19
ag18
ag18
ag18
ag19
ag19
ag19
ag19
ag19
ag18
ag19
ag19
ag18
ag19
ag19
ag18
ag18
ag18
ag19
ag19
ag19
aa(lp902
g19
ag19
ag18
ag19
ag18
ag19
ag19
ag18
ag18
ag18
ag18
ag19
ag18
ag19
ag19
ag18
ag18
ag19
ag18
ag18
ag18
aasg44
S'XO'
p903
sg46
(iid3_node
node
p904
(dp905
g2
(iid3_node
node
p906
(dp907
g2
(iid3_node
node
p908
(dp909
g2
(iid3_node
node
p910
(dp911
g2
(iid3_node
node
p912
(dp913
g2
(iid3_node
node
p914
(dp915
g2
(iid3_node
node
p916
(dp917
g13
I0
sg14
I01
sbsg15
(lp918
g672
ag701
asg44
g54
sg46
(iid3_node
node
p919
(dp920
g2
(iid3_node
node
p921
(dp922
g13
I0
sg14
I01
sbsg15
(lp923
g672
asg44
g87
sg46
(iid3_node
node
p924
(dp925
g13
I1
sg14
I01
sbsg69
(lp926
g701
asbsg69
(lp927
g670
ag776
ag899
asbsg15
(lp928
g598
ag613
ag656
ag696
ag785
ag787
ag818
ag864
asg44
g66
sg46
(iid3_node
node
p929
(dp930
g13
I1
sg14
I01
sbsg69
(lp931
g670
ag672
ag701
ag776
ag899
asbsg15
(lp932
g591
ag760
ag763
ag765
ag788
ag793
ag795
ag811
ag822
ag846
ag873
asg44
g204
sg46
(iid3_node
node
p933
(dp934
g13
I0
sg14
I01
sbsg69
(lp935
g598
ag613
ag656
ag670
ag672
ag696
ag701
ag776
ag785
ag787
ag818
ag864
ag899
asbsg15
(lp936
g587
ag588
ag603
ag612
ag618
ag641
ag646
ag654
ag668
ag673
ag675
ag685
ag693
ag706
ag712
ag715
ag728
ag738
ag739
ag743
ag751
ag753
ag757
ag759
ag761
ag766
ag767
ag777
ag783
ag792
ag797
ag801
ag810
ag813
ag814
ag830
ag831
ag836
ag840
ag842
ag843
ag850
ag856
ag869
ag876
asg44
g434
sg46
(iid3_node
node
p937
(dp938
g2
(iid3_node
node
p939
(dp940
g2
(iid3_node
node
p941
(dp942
g2
(iid3_node
node
p943
(dp944
g13
I1
sg14
I01
sbsg15
(lp945
g641
ag715
ag738
ag739
ag813
ag830
asg44
g87
sg46
(iid3_node
node
p946
(dp947
g2
(iid3_node
node
p948
(dp949
g13
I0
sg14
I01
sbsg15
(lp950
g715
ag738
ag813
ag830
asg44
g495
sg46
(iid3_node
node
p951
(dp952
g2
(iid3_node
node
p953
(dp954
g13
I0
sg14
I01
sbsg15
(lp955
g715
ag738
ag813
asg44
g204
sg46
(iid3_node
node
p956
(dp957
g13
I1
sg14
I01
sbsg69
(lp958
g830
asbsg69
(lp959
g641
ag739
asbsg69
(lp960
g693
ag766
ag810
ag856
asbsg15
(lp961
g618
ag646
ag685
ag797
ag814
ag843
asg44
g145
sg46
(iid3_node
node
p962
(dp963
g13
I0
sg14
I01
sbsg69
(lp964
g641
ag693
ag715
ag738
ag739
ag766
ag810
ag813
ag830
ag856
asbsg15
(lp965
g587
ag588
ag603
ag612
ag654
ag668
ag673
ag675
ag706
ag712
ag728
ag743
ag751
ag753
ag757
ag759
ag761
ag767
ag777
ag783
ag792
ag801
ag831
ag836
ag840
ag842
ag850
ag869
ag876
asg44
g515
sg46
(iid3_node
node
p966
(dp967
g2
(iid3_node
node
p968
(dp969
g2
(iid3_node
node
p970
(dp971
g13
I0
sg14
I01
sbsg15
(lp972
g603
ag654
ag706
ag712
ag751
ag753
ag831
ag836
ag840
ag842
ag850
asg44
g66
sg46
(iid3_node
node
p973
(dp974
g2
(iid3_node
node
p975
(dp976
g13
I1
sg14
I01
sbsg15
(lp977
g706
ag712
ag753
ag842
asg44
g495
sg46
(iid3_node
node
p978
(dp979
g2
(iid3_node
node
p980
(dp981
g13
I0
sg14
I01
sbsg15
(lp982
g706
ag712
ag842
asg44
g572
sg46
(iid3_node
node
p983
(dp984
g13
I1
sg14
I01
sbsg69
(lp985
g753
asbsg69
(lp986
g603
ag654
ag751
ag831
ag836
ag840
ag850
asbsg69
(lp987
g612
ag673
ag876
asbsg15
(lp988
g587
ag588
ag668
ag675
ag728
ag743
ag757
ag759
ag761
ag767
ag777
ag783
ag792
ag801
ag869
asg44
g445
sg46
(iid3_node
node
p989
(dp990
g13
I1
sg14
I01
sbsg69
(lp991
g603
ag612
ag654
ag673
ag706
ag712
ag751
ag753
ag831
ag836
ag840
ag842
ag850
ag876
asbsg69
(lp992
g618
ag641
ag646
ag685
ag693
ag715
ag738
ag739
ag766
ag797
ag810
ag813
ag814
ag830
ag843
ag856
asbsg69
(lp993
g591
ag598
ag613
ag656
ag670
ag672
ag696
ag701
ag760
ag763
ag765
ag776
ag785
ag787
ag788
ag793
ag795
ag811
ag818
ag822
ag846
ag864
ag873
ag899
asbsg15
(lp994
g582
ag586
ag592
ag614
ag616
ag620
ag622
ag625
ag627
ag630
ag636
ag637
ag645
ag652
ag655
ag665
ag666
ag682
ag683
ag688
ag690
ag698
ag708
ag711
ag718
ag720
ag725
ag729
ag730
ag731
ag736
ag745
ag764
ag768
ag805
ag808
ag809
ag815
ag816
ag817
ag819
ag820
ag826
ag833
ag838
ag844
ag845
ag851
ag854
ag857
ag875
ag880
ag884
ag886
ag892
ag894
ag895
ag902
asg44
g376
sg46
(iid3_node
node
p995
(dp996
g2
(iid3_node
node
p997
(dp998
g2
(iid3_node
node
p999
(dp1000
g2
(iid3_node
node
p1001
(dp1002
g2
(iid3_node
node
p1003
(dp1004
g13
I1
sg14
I01
sbsg15
(lp1005
g620
ag683
ag729
ag815
ag838
ag884
ag902
asg44
g60
sg46
(iid3_node
node
p1006
(dp1007
g2
(iid3_node
node
p1008
(dp1009
g13
I1
sg14
I01
sbsg15
(lp1010
g683
ag815
ag838
ag884
ag902
asg44
g66
sg46
(iid3_node
node
p1011
(dp1012
g2
(iid3_node
node
p1013
(dp1014
g2
(iid3_node
node
p1015
(dp1016
g2
(iid3_node
node
p1017
(dp1018
g13
I0
sg14
I01
sbsg15
(lp1019
g815
asg44
g451
sg46
(iid3_node
node
p1020
(dp1021
g13
I1
sg14
I01
sbsg69
(lp1022
g902
asbsg15
(lp1023
g683
ag884
asg44
g403
sg46
(iid3_node
node
p1024
(dp1025
g13
I0
sg14
I01
sbsg69
(lp1026
g815
ag902
asbsg15
(lp1027
g838
asg44
g495
sg46
(iid3_node
node
p1028
(dp1029
g13
I1
sg14
I01
sbsg69
(lp1030
g683
ag815
ag884
ag902
asbsg69
(lp1031
g620
ag729
asbsg69
(lp1032
g665
ag688
ag711
ag720
ag768
ag805
ag808
ag820
ag845
ag854
ag880
asbsg15
(lp1033
g586
ag636
ag698
ag708
ag725
ag731
ag745
ag817
ag851
ag894
asg44
g445
sg46
(iid3_node
node
p1034
(dp1035
g2
(iid3_node
node
p1036
(dp1037
g13
I0
sg14
I01
sbsg15
(lp1038
g586
ag636
ag698
ag725
ag731
ag817
ag851
asg44
g87
sg46
(iid3_node
node
p1039
(dp1040
g2
(iid3_node
node
p1041
(dp1042
g13
I1
sg14
I01
sbsg15
(lp1043
g698
ag725
ag851
asg44
g451
sg46
(iid3_node
node
p1044
(dp1045
g2
(iid3_node
node
p1046
(dp1047
g13
I1
sg14
I01
sbsg15
(lp1048
g698
ag725
asg44
g515
sg46
(iid3_node
node
p1049
(dp1050
g13
I0
sg14
I01
sbsg69
(lp1051
g851
asbsg69
(lp1052
g586
ag636
ag731
ag817
asbsg69
(lp1053
g708
ag745
ag894
asbsg69
(lp1054
g620
ag665
ag683
ag688
ag711
ag720
ag729
ag768
ag805
ag808
ag815
ag820
ag838
ag845
ag854
ag880
ag884
ag902
asbsg15
(lp1055
g614
ag645
ag655
ag718
ag736
ag844
ag895
asg44
g204
sg46
(iid3_node
node
p1056
(dp1057
g13
I0
sg14
I01
sbsg69
(lp1058
g586
ag620
ag636
ag665
ag683
ag688
ag698
ag708
ag711
ag720
ag725
ag729
ag731
ag745
ag768
ag805
ag808
ag815
ag817
ag820
ag838
ag845
ag851
ag854
ag880
ag884
ag894
ag902
asbsg15
(lp1059
g582
ag592
ag616
ag622
ag625
ag627
ag630
ag637
ag652
ag666
ag682
ag690
ag730
ag764
ag809
ag816
ag819
ag826
ag833
ag857
ag875
ag886
ag892
asg44
g434
sg46
(iid3_node
node
p1060
(dp1061
g13
I0
sg14
I01
sbsg69
(lp1062
g586
ag614
ag620
ag636
ag645
ag655
ag665
ag683
ag688
ag698
ag708
ag711
ag718
ag720
ag725
ag729
ag731
ag736
ag745
ag768
ag805
ag808
ag815
ag817
ag820
ag838
ag844
ag845
ag851
ag854
ag880
ag884
ag894
ag895
ag902
asbsg69
(lp1063
g587
ag588
ag591
ag598
ag603
ag612
ag613
ag618
ag641
ag646
ag654
ag656
ag668
ag670
ag672
ag673
ag675
ag685
ag693
ag696
ag701
ag706
ag712
ag715
ag728
ag738
ag739
ag743
ag751
ag753
ag757
ag759
ag760
ag761
ag763
ag765
ag766
ag767
ag776
ag777
ag783
ag785
ag787
ag788
ag792
ag793
ag795
ag797
ag801
ag810
ag811
ag813
ag814
ag818
ag822
ag830
ag831
ag836
ag840
ag842
ag843
ag846
ag850
ag856
ag864
ag869
ag873
ag876
ag899
asbsg15
(lp1064
g580
ag581
ag583
ag584
ag585
ag589
ag590
ag593
ag594
ag595
ag596
ag597
ag599
ag600
ag601
ag602
ag604
ag605
ag606
ag607
ag608
ag609
ag610
ag611
ag615
ag617
ag619
ag621
ag623
ag624
ag626
ag628
ag629
ag631
ag632
ag633
ag634
ag635
ag638
ag639
ag640
ag642
ag643
ag644
ag647
ag648
ag649
ag650
ag651
ag653
ag657
ag658
ag659
ag660
ag661
ag662
ag663
ag664
ag667
ag669
ag671
ag674
ag676
ag677
ag678
ag679
ag680
ag681
ag684
ag686
ag687
ag689
ag691
ag692
ag694
ag695
ag697
ag699
ag700
ag702
ag703
ag704
ag705
ag707
ag709
ag710
ag713
ag714
ag716
ag717
ag719
ag721
ag722
ag723
ag724
ag726
ag727
ag732
ag733
ag734
ag735
ag737
ag740
ag741
ag742
ag744
ag746
ag747
ag748
ag749
ag750
ag752
ag754
ag755
ag756
ag758
ag762
ag769
ag770
ag771
ag772
ag773
ag774
ag775
ag778
ag779
ag780
ag781
ag782
ag784
ag786
ag789
ag790
ag791
ag794
ag796
ag798
ag799
ag800
ag802
ag803
ag804
ag806
ag807
ag812
ag821
ag823
ag824
ag825
ag827
ag828
ag829
ag832
ag834
ag835
ag837
ag839
ag841
ag847
ag848
ag849
ag852
ag853
ag855
ag858
ag859
ag860
ag861
ag862
ag863
ag865
ag866
ag867
ag868
ag870
ag871
ag872
ag874
ag877
ag878
ag879
ag881
ag882
ag883
ag885
ag887
ag888
ag889
ag890
ag891
ag893
ag896
ag897
ag898
ag900
ag901
asg44
g139
sg46
(iid3_node
node
p1065
(dp1066
g2
(iid3_node
node
p1067
(dp1068
g2
(iid3_node
node
p1069
(dp1070
g2
(iid3_node
node
p1071
(dp1072
g2
(iid3_node
node
p1073
(dp1074
g13
I0
sg14
I01
sbsg15
(lp1075
g590
ag607
ag615
ag633
ag642
ag719
ag779
ag791
ag867
asg44
g204
sg46
(iid3_node
node
p1076
(dp1077
g2
(iid3_node
node
p1078
(dp1079
g2
(iid3_node
node
p1080
(dp1081
g2
(iid3_node
node
p1082
(dp1083
g13
I0
sg14
I01
sbsg15
(lp1084
g719
asg44
g495
sg46
(iid3_node
node
p1085
(dp1086
g13
I1
sg14
I01
sbsg69
(lp1087
g791
asbsg15
(lp1088
g590
ag615
ag633
ag779
asg44
g445
sg46
(iid3_node
node
p1089
(dp1090
g13
I1
sg14
I01
sbsg69
(lp1091
g719
ag791
asbsg15
(lp1092
g607
ag642
ag867
asg44
g403
sg46
(iid3_node
node
p1093
(dp1094
g2
(iid3_node
node
p1095
(dp1096
g13
I1
sg14
I01
sbsg15
(lp1097
g642
ag867
asg44
g434
sg46
(iid3_node
node
p1098
(dp1099
g13
I0
sg14
I01
sbsg69
(lp1100
g607
asbsg69
(lp1101
g590
ag615
ag633
ag719
ag779
ag791
asbsg69
(lp1102
g597
ag605
ag629
ag663
ag784
ag796
ag821
ag865
ag897
ag900
asbsg15
(lp1103
g584
ag604
ag617
ag619
ag626
ag628
ag632
ag635
ag638
ag647
ag648
ag651
ag653
ag671
ag674
ag687
ag689
ag703
ag713
ag717
ag771
ag780
ag781
ag794
ag799
ag803
ag841
ag853
ag859
ag872
ag888
ag896
ag898
asg44
g87
sg46
(iid3_node
node
p1104
(dp1105
g2
(iid3_node
node
p1106
(dp1107
g2
(iid3_node
node
p1108
(dp1109
g2
(iid3_node
node
p1110
(dp1111
g2
(iid3_node
node
p1112
(dp1113
g2
(iid3_node
node
p1114
(dp1115
g13
I1
sg14
I01
sbsg15
(lp1116
g648
ag780
asg44
g434
sg46
(iid3_node
node
p1117
(dp1118
g13
I0
sg14
I01
sbsg69
(lp1119
g584
asbsg15
(lp1120
g771
ag841
ag898
asg44
g495
sg46
(iid3_node
node
p1121
(dp1122
g2
(iid3_node
node
p1123
(dp1124
g13
I1
sg14
I01
sbsg15
(lp1125
g841
asg44
g45
sg46
(iid3_node
node
p1126
(dp1127
g13
I0
sg14
I01
sbsg69
(lp1128
g771
ag898
asbsg69
(lp1129
g584
ag648
ag780
asbsg15
(lp1130
g632
asg44
g60
sg46
(iid3_node
node
p1131
(dp1132
g13
I0
sg14
I01
sbsg69
(lp1133
g584
ag648
ag771
ag780
ag841
ag898
asbsg15
(lp1134
g604
ag626
ag628
ag638
ag651
ag653
ag687
ag703
ag853
ag872
asg44
g74
sg46
(iid3_node
node
p1135
(dp1136
g2
(iid3_node
node
p1137
(dp1138
g2
(iid3_node
node
p1139
(dp1140
g13
I0
sg14
I01
sbsg15
(lp1141
g628
ag703
asg44
g515
sg46
(iid3_node
node
p1142
(dp1143
g13
I1
sg14
I01
sbsg69
(lp1144
g651
ag687
asbsg15
(lp1145
g604
ag626
ag638
ag653
ag853
ag872
asg44
g376
sg46
(iid3_node
node
p1146
(dp1147
g13
I1
sg14
I01
sbsg69
(lp1148
g628
ag651
ag687
ag703
asbsg69
(lp1149
g584
ag632
ag648
ag771
ag780
ag841
ag898
asbsg15
(lp1150
g617
ag619
ag635
ag647
ag671
ag674
ag689
ag713
ag717
ag781
ag794
ag799
ag803
ag859
ag888
ag896
asg44
g54
sg46
(iid3_node
node
p1151
(dp1152
g13
I1
sg14
I01
sbsg69
(lp1153
g584
ag604
ag626
ag628
ag632
ag638
ag648
ag651
ag653
ag687
ag703
ag771
ag780
ag841
ag853
ag872
ag898
asbsg69
(lp1154
g590
ag597
ag605
ag607
ag615
ag629
ag633
ag642
ag663
ag719
ag779
ag784
ag791
ag796
ag821
ag865
ag867
ag897
ag900
asbsg15
(lp1155
g580
ag589
ag599
ag600
ag608
ag610
ag621
ag631
ag639
ag640
ag661
ag662
ag664
ag676
ag677
ag678
ag684
ag694
ag699
ag705
ag709
ag710
ag714
ag716
ag722
ag723
ag726
ag735
ag737
ag740
ag741
ag742
ag748
ag749
ag754
ag755
ag762
ag772
ag775
ag786
ag789
ag798
ag800
ag804
ag812
ag823
ag824
ag825
ag832
ag848
ag868
ag870
ag874
ag877
ag879
ag882
ag885
ag890
ag891
ag893
asg44
g66
sg46
(iid3_node
node
p1156
(dp1157
g2
(iid3_node
node
p1158
(dp1159
g2
(iid3_node
node
p1160
(dp1161
g2
(iid3_node
node
p1162
(dp1163
g13
I1
sg14
I01
sbsg15
(lp1164
g640
ag661
ag662
ag677
ag722
ag726
ag740
ag800
ag893
asg44
g145
sg46
(iid3_node
node
p1165
(dp1166
g2
(iid3_node
node
p1167
(dp1168
g2
(iid3_node
node
p1169
(dp1170
g13
I1
sg14
I01
sbsg15
(lp1171
g640
ag661
asg44
g204
sg46
(iid3_node
node
p1172
(dp1173
g13
I0
sg14
I01
sbsg69
(lp1174
g677
ag726
ag740
ag800
ag893
asbsg15
(lp1175
g662
ag722
asg44
g45
sg46
(iid3_node
node
p1176
(dp1177
g13
I0
sg14
I01
sbsg69
(lp1178
g640
ag661
ag677
ag726
ag740
ag800
ag893
asbsg69
(lp1179
g608
ag684
ag699
ag714
ag737
ag798
ag877
ag885
ag891
asbsg15
(lp1180
g580
ag589
ag705
ag709
ag742
ag786
ag868
asg44
g60
sg46
(iid3_node
node
p1181
(dp1182
g2
(iid3_node
node
p1183
(dp1184
g13
I0
sg14
I01
sbsg15
(lp1185
g580
ag709
ag786
ag868
asg44
g376
sg46
(iid3_node
node
p1186
(dp1187
g2
(iid3_node
node
p1188
(dp1189
g2
(iid3_node
node
p1190
(dp1191
g13
I1
sg14
I01
sbsg15
(lp1192
g786
asg44
g403
sg46
(iid3_node
node
p1193
(dp1194
g13
I0
sg14
I01
sbsg69
(lp1195
g709
asbsg15
(lp1196
g580
ag868
asg44
g54
sg46
(iid3_node
node
p1197
(dp1198
g13
I1
sg14
I01
sbsg69
(lp1199
g709
ag786
asbsg69
(lp1200
g589
ag705
ag742
asbsg69
(lp1201
g608
ag640
ag661
ag662
ag677
ag684
ag699
ag714
ag722
ag726
ag737
ag740
ag798
ag800
ag877
ag885
ag891
ag893
asbsg15
(lp1202
g599
ag600
ag610
ag621
ag631
ag639
ag664
ag676
ag678
ag694
ag710
ag716
ag723
ag735
ag741
ag748
ag749
ag754
ag755
ag762
ag772
ag775
ag789
ag804
ag812
ag823
ag824
ag825
ag832
ag848
ag870
ag874
ag879
ag882
ag890
asg44
g515
sg46
(iid3_node
node
p1203
(dp1204
g2
(iid3_node
node
p1205
(dp1206
g13
I1
sg14
I01
sbsg15
(lp1207
g621
ag639
ag664
ag678
ag694
ag710
ag716
ag735
ag741
ag754
ag762
ag775
ag823
ag824
ag832
ag848
ag874
ag879
ag882
asg44
g54
sg46
(iid3_node
node
p1208
(dp1209
g2
(iid3_node
node
p1210
(dp1211
g2
(iid3_node
node
p1212
(dp1213
g13
I0
sg14
I01
sbsg15
(lp1214
g664
ag678
ag735
ag762
ag879
asg44
g128
sg46
(iid3_node
node
p1215
(dp1216
g2
(iid3_node
node
p1217
(dp1218
g13
I1
sg14
I01
sbsg15
(lp1219
g735
ag879
asg44
g145
sg46
(iid3_node
node
p1220
(dp1221
g2
(iid3_node
node
p1222
(dp1223
g13
I1
sg14
I01
sbsg15
(lp1224
g735
asg44
g495
sg46
(iid3_node
node
p1225
(dp1226
g13
I0
sg14
I01
sbsg69
(lp1227
g879
asbsg69
(lp1228
g664
ag678
ag762
asbsg69
(lp1229
g710
ag882
asbsg15
(lp1230
g621
ag639
ag694
ag716
ag741
ag754
ag775
ag823
ag824
ag832
ag848
ag874
asg44
g45
sg46
(iid3_node
node
p1231
(dp1232
g2
(iid3_node
node
p1233
(dp1234
g13
I1
sg14
I01
sbsg15
(lp1235
g694
ag741
ag824
ag848
asg44
g434
sg46
(iid3_node
node
p1236
(dp1237
g2
(iid3_node
node
p1238
(dp1239
g13
I1
sg14
I01
sbsg15
(lp1240
g824
asg44
g495
sg46
(iid3_node
node
p1241
(dp1242
g13
I0
sg14
I01
sbsg69
(lp1243
g694
ag741
ag848
asbsg69
(lp1244
g621
ag639
ag716
ag754
ag775
ag823
ag832
ag874
asbsg69
(lp1245
g664
ag678
ag710
ag735
ag762
ag879
ag882
asbsg69
(lp1246
g599
ag600
ag610
ag631
ag676
ag723
ag748
ag749
ag755
ag772
ag789
ag804
ag812
ag825
ag870
ag890
asbsg69
(lp1247
g580
ag589
ag608
ag640
ag661
ag662
ag677
ag684
ag699
ag705
ag709
ag714
ag722
ag726
ag737
ag740
ag742
ag786
ag798
ag800
ag868
ag877
ag885
ag891
ag893
asbsg69
(lp1248
g584
ag590
ag597
ag604
ag605
ag607
ag615
ag617
ag619
ag626
ag628
ag629
ag632
ag633
ag635
ag638
ag642
ag647
ag648
ag651
ag653
ag663
ag671
ag674
ag687
ag689
ag703
ag713
ag717
ag719
ag771
ag779
ag780
ag781
ag784
ag791
ag794
ag796
ag799
ag803
ag821
ag841
ag853
ag859
ag865
ag867
ag872
ag888
ag896
ag897
ag898
ag900
asbsg15
(lp1249
g581
ag583
ag585
ag593
ag594
ag595
ag596
ag601
ag602
ag606
ag609
ag611
ag623
ag624
ag634
ag643
ag644
ag649
ag650
ag657
ag658
ag659
ag660
ag667
ag669
ag679
ag680
ag681
ag686
ag691
ag692
ag695
ag697
ag700
ag702
ag704
ag707
ag721
ag724
ag727
ag732
ag733
ag734
ag744
ag746
ag747
ag750
ag752
ag756
ag758
ag769
ag770
ag773
ag774
ag778
ag782
ag790
ag802
ag806
ag807
ag827
ag828
ag829
ag834
ag835
ag837
ag839
ag847
ag849
ag852
ag855
ag858
ag860
ag861
ag862
ag863
ag866
ag871
ag878
ag881
ag883
ag887
ag889
ag901
asg44
g451
sg46
(iid3_node
node
p1250
(dp1251
g2
(iid3_node
node
p1252
(dp1253
g2
(iid3_node
node
p1254
(dp1255
g2
(iid3_node
node
p1256
(dp1257
g2
(iid3_node
node
p1258
(dp1259
g2
(iid3_node
node
p1260
(dp1261
g2
(iid3_node
node
p1262
(dp1263
g2
(iid3_node
node
p1264
(dp1265
g13
I0
sg14
I01
sbsg15
(lp1266
g634
ag769
ag860
asg44
g82
sg46
(iid3_node
node
p1267
(dp1268
g13
I1
sg14
I01
sbsg69
(lp1269
g721
asbsg15
(lp1270
g581
ag806
ag881
ag887
ag901
asg44
g66
sg46
(iid3_node
node
p1271
(dp1272
g13
I1
sg14
I01
sbsg69
(lp1273
g634
ag721
ag769
ag860
asbsg15
(lp1274
g585
ag681
ag782
ag889
asg44
g403
sg46
(iid3_node
node
p1275
(dp1276
g2
(iid3_node
node
p1277
(dp1278
g13
I0
sg14
I01
sbsg15
(lp1279
g782
ag889
asg44
g495
sg46
(iid3_node
node
p1280
(dp1281
g2
(iid3_node
node
p1282
(dp1283
g13
I0
sg14
I01
sbsg15
(lp1284
g889
asg44
g445
sg46
(iid3_node
node
p1285
(dp1286
g13
I1
sg14
I01
sbsg69
(lp1287
g782
asbsg69
(lp1288
g585
ag681
asbsg69
(lp1289
g581
ag634
ag721
ag769
ag806
ag860
ag881
ag887
ag901
asbsg15
(lp1290
g606
ag611
ag679
ag680
ag697
ag746
ag752
ag774
ag827
ag834
ag847
ag866
ag883
asg44
g60
sg46
(iid3_node
node
p1291
(dp1292
g13
I1
sg14
I01
sbsg69
(lp1293
g581
ag585
ag634
ag681
ag721
ag769
ag782
ag806
ag860
ag881
ag887
ag889
ag901
asbsg15
(lp1294
g593
ag595
ag657
ag707
ag756
ag778
ag839
asg44
g572
sg46
(iid3_node
node
p1295
(dp1296
g2
(iid3_node
node
p1297
(dp1298
g2
(iid3_node
node
p1299
(dp1300
g13
I0
sg14
I01
sbsg15
(lp1301
g593
ag595
ag756
asg44
g515
sg46
(iid3_node
node
p1302
(dp1303
g13
I1
sg14
I01
sbsg69
(lp1304
g778
asbsg15
(lp1305
g657
ag707
ag839
asg44
g74
sg46
(iid3_node
node
p1306
(dp1307
g13
I0
sg14
I01
sbsg69
(lp1308
g593
ag595
ag756
ag778
asbsg69
(lp1309
g581
ag585
ag606
ag611
ag634
ag679
ag680
ag681
ag697
ag721
ag746
ag752
ag769
ag774
ag782
ag806
ag827
ag834
ag847
ag860
ag866
ag881
ag883
ag887
ag889
ag901
asbsg15
(lp1310
g596
ag644
ag649
ag658
ag659
ag660
ag669
ag727
ag732
ag750
ag758
ag773
ag802
ag807
ag855
ag871
ag878
asg44
g434
sg46
(iid3_node
node
p1311
(dp1312
g2
(iid3_node
node
p1313
(dp1314
g2
(iid3_node
node
p1315
(dp1316
g2
(iid3_node
node
p1317
(dp1318
g13
I1
sg14
I01
sbsg15
(lp1319
g660
ag807
ag871
asg44
g495
sg46
(iid3_node
node
p1320
(dp1321
g13
I0
sg14
I01
sbsg69
(lp1322
g644
asbsg15
(lp1323
g596
ag649
ag658
ag659
ag732
ag758
ag855
asg44
g145
sg46
(iid3_node
node
p1324
(dp1325
g2
(iid3_node
node
p1326
(dp1327
g13
I1
sg14
I01
sbsg15
(lp1328
g649
ag732
ag855
asg44
g403
sg46
(iid3_node
node
p1329
(dp1330
g2
(iid3_node
node
p1331
(dp1332
g13
I1
sg14
I01
sbsg15
(lp1333
g855
asg44
g445
sg46
(iid3_node
node
p1334
(dp1335
g13
I0
sg14
I01
sbsg69
(lp1336
g649
ag732
asbsg69
(lp1337
g596
ag658
ag659
ag758
asbsg69
(lp1338
g644
ag660
ag807
ag871
asbsg15
(lp1339
g669
ag727
ag750
ag773
ag802
ag878
asg44
g376
sg46
(iid3_node
node
p1340
(dp1341
g13
I0
sg14
I01
sbsg69
(lp1342
g596
ag644
ag649
ag658
ag659
ag660
ag732
ag758
ag807
ag855
ag871
asbsg69
(lp1343
g581
ag585
ag593
ag595
ag606
ag611
ag634
ag657
ag679
ag680
ag681
ag697
ag707
ag721
ag746
ag752
ag756
ag769
ag774
ag778
ag782
ag806
ag827
ag834
ag839
ag847
ag860
ag866
ag881
ag883
ag887
ag889
ag901
asbsg15
(lp1344
g583
ag594
ag601
ag602
ag609
ag623
ag624
ag643
ag650
ag667
ag686
ag691
ag692
ag695
ag700
ag702
ag704
ag724
ag733
ag734
ag744
ag747
ag770
ag790
ag828
ag829
ag835
ag837
ag849
ag852
ag858
ag861
ag862
ag863
asg44
g54
sg46
(iid3_node
node
p1345
(dp1346
g2
(iid3_node
node
p1347
(dp1348
g2
(iid3_node
node
p1349
(dp1350
g2
(iid3_node
node
p1351
(dp1352
g13
I1
sg14
I01
sbsg15
(lp1353
g691
ag700
ag702
ag734
ag744
ag835
ag837
asg44
g495
sg46
(iid3_node
node
p1354
(dp1355
g2
(iid3_node
node
p1356
(dp1357
g2
(iid3_node
node
p1358
(dp1359
g13
I1
sg14
I01
sbsg15
(lp1360
g702
asg44
g45
sg46
(iid3_node
node
p1361
(dp1362
g13
I0
sg14
I01
sbsg69
(lp1363
g691
ag734
ag744
asbsg15
(lp1364
g700
ag835
ag837
asg44
g434
sg46
(iid3_node
node
p1365
(dp1366
g2
(iid3_node
node
p1367
(dp1368
g13
I0
sg14
I01
sbsg15
(lp1369
g700
asg44
g66
sg46
(iid3_node
node
p1370
(dp1371
g13
I1
sg14
I01
sbsg69
(lp1372
g835
ag837
asbsg69
(lp1373
g691
ag702
ag734
ag744
asbsg69
(lp1374
g623
ag770
ag828
ag862
asbsg15
(lp1375
g594
ag624
ag686
ag692
ag747
ag790
ag849
asg44
g74
sg46
(iid3_node
node
p1376
(dp1377
g2
(iid3_node
node
p1378
(dp1379
g13
I0
sg14
I01
sbsg15
(lp1380
g692
asg44
g45
sg46
(iid3_node
node
p1381
(dp1382
g13
I1
sg14
I01
sbsg69
(lp1383
g594
ag624
ag686
ag747
ag790
ag849
asbsg69
(lp1384
g623
ag691
ag700
ag702
ag734
ag744
ag770
ag828
ag835
ag837
ag862
asbsg15
(lp1385
g583
ag601
ag602
ag609
ag643
ag650
ag667
ag695
ag704
ag724
ag733
ag829
ag852
ag858
ag861
ag863
asg44
g445
sg46
(iid3_node
node
p1386
(dp1387
g2
(iid3_node
node
p1388
(dp1389
g2
(iid3_node
node
p1390
(dp1391
g2
(iid3_node
node
p1392
(dp1393
g13
I0
sg14
I01
sbsg15
(lp1394
g667
ag724
ag829
asg44
g74
sg46
(iid3_node
node
p1395
(dp1396
g2
(iid3_node
node
p1397
(dp1398
g13
I0
sg14
I01
sbsg15
(lp1399
g667
ag724
asg44
g403
sg46
(iid3_node
node
p1400
(dp1401
g13
I1
sg14
I01
sbsg69
(lp1402
g829
asbsg69
(lp1403
g602
ag609
ag695
ag704
ag861
ag863
asbsg15
(lp1404
g601
ag650
ag858
asg44
g434
sg46
(iid3_node
node
p1405
(dp1406
g2
(iid3_node
node
p1407
(dp1408
g13
I1
sg14
I01
sbsg15
(lp1409
g650
asg44
g376
sg46
(iid3_node
node
p1410
(dp1411
g13
I0
sg14
I01
sbsg69
(lp1412
g601
ag858
asbsg69
(lp1413
g602
ag609
ag667
ag695
ag704
ag724
ag829
ag861
ag863
asbsg15
(lp1414
g583
ag643
ag733
ag852
asg44
g66
sg46
(iid3_node
node
p1415
(dp1416
g13
I0
sg14
I01
sbsg69
(lp1417
g601
ag602
ag609
ag650
ag667
ag695
ag704
ag724
ag829
ag858
ag861
ag863
asbsg69
(lp1418
g594
ag623
ag624
ag686
ag691
ag692
ag700
ag702
ag734
ag744
ag747
ag770
ag790
ag828
ag835
ag837
ag849
ag862
asbsg69
(lp1419
g581
ag585
ag593
ag595
ag596
ag606
ag611
ag634
ag644
ag649
ag657
ag658
ag659
ag660
ag669
ag679
ag680
ag681
ag697
ag707
ag721
ag727
ag732
ag746
ag750
ag752
ag756
ag758
ag769
ag773
ag774
ag778
ag782
ag802
ag806
ag807
ag827
ag834
ag839
ag847
ag855
ag860
ag866
ag871
ag878
ag881
ag883
ag887
ag889
ag901
asbsg69
(lp1420
g580
ag584
ag589
ag590
ag597
ag599
ag600
ag604
ag605
ag607
ag608
ag610
ag615
ag617
ag619
ag621
ag626
ag628
ag629
ag631
ag632
ag633
ag635
ag638
ag639
ag640
ag642
ag647
ag648
ag651
ag653
ag661
ag662
ag663
ag664
ag671
ag674
ag676
ag677
ag678
ag684
ag687
ag689
ag694
ag699
ag703
ag705
ag709
ag710
ag713
ag714
ag716
ag717
ag719
ag722
ag723
ag726
ag735
ag737
ag740
ag741
ag742
ag748
ag749
ag754
ag755
ag762
ag771
ag772
ag775
ag779
ag780
ag781
ag784
ag786
ag789
ag791
ag794
ag796
ag798
ag799
ag800
ag803
ag804
ag812
ag821
ag823
ag824
ag825
ag832
ag841
ag848
ag853
ag859
ag865
ag867
ag868
ag870
ag872
ag874
ag877
ag879
ag882
ag885
ag888
ag890
ag891
ag893
ag896
ag897
ag898
ag900
asbsg69
(lp1421
g582
ag586
ag587
ag588
ag591
ag592
ag598
ag603
ag612
ag613
ag614
ag616
ag618
ag620
ag622
ag625
ag627
ag630
ag636
ag637
ag641
ag645
ag646
ag652
ag654
ag655
ag656
ag665
ag666
ag668
ag670
ag672
ag673
ag675
ag682
ag683
ag685
ag688
ag690
ag693
ag696
ag698
ag701
ag706
ag708
ag711
ag712
ag715
ag718
ag720
ag725
ag728
ag729
ag730
ag731
ag736
ag738
ag739
ag743
ag745
ag751
ag753
ag757
ag759
ag760
ag761
ag763
ag764
ag765
ag766
ag767
ag768
ag776
ag777
ag783
ag785
ag787
ag788
ag792
ag793
ag795
ag797
ag801
ag805
ag808
ag809
ag810
ag811
ag813
ag814
ag815
ag816
ag817
ag818
ag819
ag820
ag822
ag826
ag830
ag831
ag833
ag836
ag838
ag840
ag842
ag843
ag844
ag845
ag846
ag850
ag851
ag854
ag856
ag857
ag864
ag869
ag873
ag875
ag876
ag880
ag884
ag886
ag892
ag894
ag895
ag899
ag902
asbsg69
(lp1422
g153
ag209
ag154
ag17
ag155
ag210
ag211
ag212
ag213
ag214
ag215
ag156
ag157
ag216
ag217
ag218
ag219
ag220
ag158
ag221
ag222
ag159
ag223
ag224
ag20
ag225
ag103
ag226
ag21
ag160
ag227
ag228
ag229
ag230
ag104
ag231
ag232
ag233
ag234
ag161
ag235
ag162
ag163
ag236
ag93
ag237
ag238
ag239
ag22
ag240
ag164
ag105
ag165
ag106
ag166
ag241
ag107
ag242
ag243
ag244
ag245
ag108
ag109
ag246
ag247
ag248
ag249
ag250
ag251
ag110
ag252
ag167
ag23
ag253
ag168
ag254
ag169
ag255
ag170
ag256
ag257
ag258
ag171
ag259
ag260
ag172
ag261
ag24
ag262
ag263
ag264
ag265
ag25
ag266
ag111
ag267
ag268
ag269
ag270
ag112
ag271
ag26
ag272
ag173
ag174
ag273
ag113
ag274
ag94
ag95
ag114
ag175
ag275
ag276
ag176
ag177
ag277
ag278
ag178
ag279
ag280
ag281
ag282
ag283
ag179
ag284
ag285
ag180
ag181
ag182
ag183
ag115
ag286
ag116
ag96
ag287
ag288
ag289
ag184
ag290
ag97
ag291
ag292
ag185
ag293
ag294
ag295
ag186
ag187
ag296
ag117
ag118
ag297
ag298
ag119
ag299
ag120
ag300
ag301
ag302
ag303
ag304
ag305
ag306
ag307
ag308
ag188
ag309
ag310
ag189
ag311
ag27
ag312
ag313
ag314
ag315
ag316
ag317
ag121
ag318
ag319
ag190
ag320
ag28
ag321
ag322
ag191
ag323
ag29
ag192
ag30
ag324
ag31
ag325
ag98
ag193
ag326
ag327
ag328
ag329
ag99
ag330
ag194
ag331
ag195
ag332
ag333
ag196
ag334
ag335
ag336
ag197
ag122
ag337
ag338
ag198
ag339
ag32
ag340
ag33
ag341
ag342
ag199
ag343
ag34
ag35
ag36
ag344
ag345
ag123
ag37
ag346
ag347
ag348
ag349
ag38
ag350
ag351
ag352
ag124
ag353
ag354
ag355
ag125
ag356
ag39
ag357
ag358
ag359
ag126
ag40
ag200
ag360
ag361
ag362
ag363
ag364
ag365
ag366
ag100
ag101
ag367
ag368
ag369
ag370
ag371
ag372
ag41
ag373
ag201
ag127
ag42
ag202
ag43
ag203
ag374
ag375
asb.