(iid3_node
node
p0
(dp1
S'feature_label'
p2
S'XO'
p3
sS'right_node'
p4
(iid3_node
node
p5
(dp6
g2
S'XI'
p7
sS'parent'
p8
g0
sg4
(iid3_node
node
p9
(dp10
g2
S'XT'
p11
sg8
g5
sg4
(iid3_node
node
p12
(dp13
g2
S'XS'
p14
sg8
g9
sg4
(iid3_node
node
p15
(dp16
g2
S'XL'
p17
sg8
g12
sg4
(iid3_node
node
p18
(dp19
g2
S'XH'
p20
sg8
g15
sg4
(iid3_node
node
p21
(dp22
S'class_prediction'
p23
I0
sg8
g18
sS'is_pure'
p24
I01
sbsS'left_node'
p25
(iid3_node
node
p26
(dp27
g2
S'XQ'
p28
sg8
g18
sg4
(iid3_node
node
p29
(dp30
g2
S'XM'
p31
sg8
g26
sg4
(iid3_node
node
p32
(dp33
g23
I0
sg8
g29
sg24
I01
sbsg25
(iid3_node
node
p34
(dp35
g23
I1
sg8
g29
sg24
I01
sbsS'right_data'
p36
(lp37
(lp38
S'0'
p39
ag39
ag39
aS'1'
p40
ag39
ag39
ag39
ag40
ag39
ag39
ag40
ag40
ag40
ag40
ag40
ag40
ag39
ag40
ag40
ag40
ag39
aasS'left_data'
p41
(lp42
(lp43
g40
ag39
ag39
ag39
ag39
ag40
ag39
ag40
ag39
ag39
ag40
ag39
ag39
ag40
ag40
ag40
ag39
ag40
ag40
ag40
ag40
aa(lp44
g40
ag39
ag39
ag40
ag39
ag40
ag39
ag40
ag39
ag39
ag40
ag39
ag40
ag40
ag40
ag40
ag39
ag40
ag40
ag39
ag40
aasg23
I1
sbsg25
(iid3_node
node
p45
(dp46
g2
S'XD'
p47
sg8
g26
sg4
(iid3_node
node
p48
(dp49
g2
S'XR'
p50
sg8
g45
sg4
(iid3_node
node
p51
(dp52
g23
I1
sg8
g48
sg24
I01
sbsg25
(iid3_node
node
p53
(dp54
g23
I0
sg8
g48
sg24
I01
sbsg36
(lp55
(lp56
g39
ag39
ag40
ag39
ag40
ag39
ag39
ag40
ag40
ag39
ag40
ag40
ag39
ag40
ag39
ag39
ag40
ag40
ag40
ag40
ag40
aa(lp57
g39
ag39
ag40
ag39
ag40
ag39
ag39
ag40
ag39
ag39
ag40
ag39
ag40
ag40
ag39
ag39
ag40
ag40
ag40
ag40
ag40
aasg41
(lp58
(lp59
g40
ag39
ag40
ag39
ag40
ag40
ag39
ag40
ag40
ag39
ag40
ag39
ag39
ag40
ag39
ag39
ag39
ag40
ag40
ag40
ag39
aasg23
I1
sbsg25
(iid3_node
node
p60
(dp61
g23
I0
sg8
g45
sg24
I01
sbsg36
(lp62
g56
ag57
ag59
asg41
(lp63
(lp64
g40
ag40
ag39
ag40
ag39
ag39
ag39
ag40
ag40
ag39
ag40
ag39
ag40
ag40
ag40
ag39
ag39
ag40
ag40
ag40
ag39
aa(lp65
g40
ag39
ag39
ag40
ag40
ag39
ag39
ag40
ag40
ag39
ag40
ag39
ag39
ag40
ag40
ag39
ag40
ag40
ag40
ag39
ag39
aa(lp66
g39
ag39
ag39
ag40
ag40
ag39
ag39
ag40
ag40
ag40
ag40
ag40
ag39
ag40
ag39
ag39
ag40
ag40
ag40
ag39
ag39
aa(lp67
g39
ag39
ag39
ag39
ag40
ag40
ag39
ag40
ag40
ag40
ag40
ag39
ag40
ag40
ag40
ag39
ag40
ag40
ag40
ag39
ag39
aa(lp68
g39
ag39
ag39
ag39
ag39
ag40
ag39
ag40
ag39
ag39
ag40
ag39
ag40
ag40
ag39
ag39
ag39
ag40
ag40
ag39
ag39
aa(lp69
g39
ag40
ag39
ag40
ag40
ag39
ag39
ag40
ag39
ag39
ag40
ag40
ag40
ag40
ag40
ag39
ag39
ag40
ag40
ag40
ag39
aasg23
I0
sbsg36
(lp70
g43
ag38
ag44
asg41
(lp71
g64
ag65
ag56
ag66
ag67
ag57
ag59
ag68
ag69
asg23
I0
sbsg36
(lp72
(lp73
g39
ag39
ag39
ag39
ag39
ag39
ag40
ag40
ag40
ag40
ag40
ag39
ag40
ag40
ag39
ag39
ag40
ag40
ag40
ag40
ag39
aa(lp74
g40
ag40
ag40
ag40
ag40
ag40
ag40
ag40
ag40
ag39
ag40
ag40
ag39
ag40
ag40
ag40
ag39
ag40
ag40
ag39
ag39
aa(lp75
g39
ag39
ag39
ag40
ag39
ag40
ag40
ag40
ag39
ag39
ag40
ag40
ag39
ag40
ag40
ag39
ag40
ag40
ag40
ag39
ag39
aa(lp76
g40
ag39
ag39
ag40
ag39
ag40
ag40
ag40
ag39
ag39
ag40
ag40
ag40
ag40
ag39
ag39
ag39
ag40
ag40
ag40
ag39
aasg41
(lp77
g43
ag64
ag65
ag38
ag56
ag66
ag67
ag57
ag59
ag44
ag68
ag69
asg23
I0
sbsg25
(iid3_node
node
p78
(dp79
g2
g47
sg8
g15
sg4
(iid3_node
node
p80
(dp81
g2
S'XG'
p82
sg8
g78
sg4
(iid3_node
node
p83
(dp84
g23
I1
sg8
g80
sg24
I01
sbsg25
(iid3_node
node
p85
(dp86
g23
I0
sg8
g80
sg24
I01
sbsg36
(lp87
(lp88
g40
ag39
ag40
ag40
ag39
ag40
ag39
ag40
ag40
ag39
ag39
ag40
ag39
ag40
ag39
ag39
ag39
ag40
ag40
ag40
ag40
aasg41
(lp89
(lp90
g39
ag39
ag40
ag40
ag40
ag39
ag39
ag40
ag40
ag40
ag39
ag40
ag39
ag40
ag39
ag40
ag39
ag40
ag40
ag40
ag39
aa(lp91
g40
ag39
ag40
ag39
ag40
ag39
ag40
ag40
ag39
ag40
ag39
ag39
ag40
ag40
ag40
ag40
ag39
ag40
ag40
ag40
ag39
aa(lp92
g39
ag39
ag40
ag39
ag39
ag39
ag40
ag40
ag40
ag39
ag39
ag39
ag39
ag40
ag39
ag40
ag40
ag40
ag40
ag40
ag39
aa(lp93
g40
ag40
ag40
ag39
ag40
ag39
ag39
ag40
ag39
ag39
ag39
ag39
ag40
ag40
ag40
ag39
ag39
ag40
ag40
ag39
ag39
aa(lp94
g40
ag40
ag40
ag39
ag39
ag39
ag39
ag40
ag39
ag39
ag39
ag40
ag39
ag40
ag40
ag39
ag39
ag40
ag40
ag40
ag39
aa(lp95
g40
ag40
ag40
ag39
ag39
ag39
ag39
ag40
ag40
ag39
ag39
ag40
ag40
ag40
ag40
ag40
ag39
ag40
ag40
ag40
ag39
aasg23
I0
sbsg25
(iid3_node
node
p96
(dp97
g2
S'XU'
p98
sg8
g78
sg4
(iid3_node
node
p99
(dp100
g2
g28
sg8
g96
sg4
(iid3_node
node
p101
(dp102
g2
g20
sg8
g99
sg4
(iid3_node
node
p103
(dp104
g23
I1
sg8
g101
sg24
I01
sbsg25
(iid3_node
node
p105
(dp106
g23
I0
sg8
g101
sg24
I01
sbsg36
(lp107
(lp108
g39
ag39
ag39
ag40
ag40
ag40
ag40
ag40
ag40
ag40
ag39
ag39
ag39
ag40
ag40
ag40
ag39
ag40
ag40
ag40
ag40
aasg41
(lp109
(lp110
g39
ag40
ag39
ag40
ag40
ag39
ag39
ag40
ag39
ag40
ag39
ag39
ag39
ag40
ag39
ag40
ag40
ag40
ag40
ag40
ag39
aa(lp111
g40
ag39
ag39
ag39
ag39
ag39
ag39
ag40
ag40
ag40
ag39
ag40
ag39
ag40
ag40
ag40
ag39
ag40
ag40
ag40
ag39
aasg23
I0
sbsg25
(iid3_node
node
p112
(dp113
g2
g82
sg8
g99
sg4
(iid3_node
node
p114
(dp115
g23
I0
sg8
g112
sg24
I01
sbsg25
(iid3_node
node
p116
(dp117
g23
I1
sg8
g112
sg24
I01
sbsg36
(lp118
(lp119
g40
ag39
ag39
ag39
ag39
ag40
ag40
ag40
ag39
ag39
ag39
ag39
ag39
ag40
ag39
ag39
ag39
ag40
ag40
ag40
ag39
aasg41
(lp120
(lp121
g40
ag39
ag39
ag39
ag39
ag39
ag40
ag40
ag39
ag39
ag39
ag39
ag39
ag40
ag40
ag39
ag39
ag40
ag40
ag40
ag40
aa(lp122
g39
ag40
ag39
ag39
ag40
ag39
ag39
ag40
ag40
ag39
ag39
ag40
ag39
ag40
ag40
ag39
ag39
ag40
ag40
ag40
ag40
aa(lp123
g39
ag40
ag39
ag39
ag40
ag39
ag40
ag40
ag39
ag40
ag39
ag40
ag39
ag40
ag39
ag39
ag40
ag40
ag40
ag40
ag40
aasg23
I1
sbsg36
(lp124
g108
ag110
ag111
asg41
(lp125
g121
ag119
ag122
ag123
asg23
I1
sbsg25
(iid3_node
node
p126
(dp127
g23
I1
sg8
g96
sg24
I01
sbsg36
(lp128
g121
ag108
ag119
ag122
ag123
ag110
ag111
asg41
(lp129
(lp130
g39
ag39
ag39
ag40
ag39
ag40
ag40
ag40
ag39
ag40
ag39
ag39
ag39
ag40
ag39
ag39
ag39
ag40
ag40
ag39
ag40
aa(lp131
g39
ag39
ag39
ag40
ag40
ag39
ag40
ag40
ag39
ag39
ag39
ag39
ag40
ag40
ag40
ag39
ag39
ag40
ag40
ag39
ag40
aa(lp132
g40
ag40
ag39
ag40
ag39
ag40
ag40
ag40
ag40
ag39
ag39
ag39
ag39
ag40
ag40
ag40
ag39
ag40
ag40
ag39
ag40
aa(lp133
g40
ag39
ag39
ag39
ag39
ag39
ag39
ag40
ag40
ag39
ag39
ag40
ag39
ag40
ag40
ag39
ag39
ag40
ag40
ag39
ag40
aasg23
I1
sbsg36
(lp134
g90
ag91
ag92
ag88
ag93
ag94
ag95
asg41
(lp135
g130
ag121
ag108
ag119
ag122
ag123
ag131
ag132
ag110
ag111
ag133
asg23
I1
sbsg36
(lp136
g73
ag43
ag64
ag65
ag74
ag38
ag56
ag66
ag67
ag57
ag75
ag59
ag76
ag44
ag68
ag69
asg41
(lp137
g90
ag130
ag91
ag92
ag121
ag88
ag108
ag119
ag122
ag123
ag93
ag131
ag94
ag132
ag110
ag111
ag95
ag133
asg23
I0
sbsg25
(iid3_node
node
p138
(dp139
g2
g28
sg8
g12
sg4
(iid3_node
node
p140
(dp141
g2
g31
sg8
g138
sg4
(iid3_node
node
p142
(dp143
g23
I0
sg8
g140
sg24
I01
sbsg25
(iid3_node
node
p144
(dp145
g2
S'XN'
p146
sg8
g140
sg4
(iid3_node
node
p147
(dp148
g2
g50
sg8
g144
sg4
(iid3_node
node
p149
(dp150
g2
g17
sg8
g147
sg4
(iid3_node
node
p151
(dp152
g23
I0
sg8
g149
sg24
I01
sbsg25
(iid3_node
node
p153
(dp154
g23
I1
sg8
g149
sg24
I01
sbsg36
(lp155
(lp156
g39
ag39
ag39
ag40
ag39
ag39
ag40
ag40
ag40
ag39
ag40
ag39
ag40
ag40
ag39
ag40
ag40
ag39
ag40
ag39
ag39
aasg41
(lp157
(lp158
g40
ag39
ag40
ag39
ag39
ag39
ag40
ag40
ag40
ag39
ag39
ag39
ag40
ag40
ag39
ag40
ag40
ag39
ag40
ag40
ag40
aa(lp159
g40
ag40
ag40
ag39
ag39
ag39
ag40
ag40
ag40
ag39
ag39
ag39
ag40
ag40
ag40
ag40
ag40
ag39
ag40
ag39
ag40
aasg23
I1
sbsg25
(iid3_node
node
p160
(dp161
g23
I1
sg8
g147
sg24
I01
sbsg36
(lp162
g158
ag159
ag156
asg41
(lp163
(lp164
g40
ag39
ag39
ag39
ag39
ag39
ag40
ag40
ag39
ag39
ag40
ag39
ag40
ag40
ag40
ag40
ag39
ag39
ag40
ag39
ag40
aa(lp165
g39
ag39
ag39
ag40
ag40
ag40
ag39
ag40
ag40
ag40
ag40
ag39
ag40
ag40
ag40
ag40
ag39
ag39
ag40
ag40
ag40
aa(lp166
g39
ag39
ag39
ag40
ag40
ag39
ag39
ag40
ag39
ag40
ag40
ag39
ag40
ag40
ag39
ag40
ag39
ag39
ag40
ag39
ag40
aa(lp167
g39
ag39
ag39
ag40
ag40
ag39
ag39
ag40
ag39
ag39
ag40
ag39
ag40
ag40
ag40
ag40
ag39
ag39
ag40
ag39
ag40
aasg23
I1
sbsg25
(iid3_node
node
p168
(dp169
g2
g98
sg8
g144
sg4
(iid3_node
node
p170
(dp171
g23
I0
sg8
g168
sg24
I01
sbsg25
(iid3_node
node
p172
(dp173
g23
I1
sg8
g168
sg24
I01
sbsg36
(lp174
(lp175
g40
ag39
ag39
ag40
ag40
ag40
ag39
ag40
ag40
ag39
ag40
ag39
ag39
ag40
ag40
ag40
ag39
ag39
ag40
ag40
ag39
aa(lp176
g39
ag39
ag40
ag39
ag39
ag40
ag40
ag40
ag39
ag40
ag39
ag39
ag39
ag40
ag40
ag40
ag39
ag39
ag40
ag40
ag39
aa(lp177
g39
ag39
ag40
ag39
ag39
ag39
ag40
ag40
ag40
ag40
ag39
ag39
ag39
ag40
ag39
ag40
ag40
ag39
ag40
ag40
ag39
aasg41
(lp178
(lp179
g39
ag39
ag39
ag39
ag40
ag39
ag39
ag40
ag40
ag39
ag40
ag39
ag39
ag40
ag40
ag40
ag39
ag39
ag40
ag39
ag40
aasg23
I0
sbsg36
(lp180
g164
ag158
ag165
ag166
ag159
ag167
ag156
asg41
(lp181
g179
ag175
ag176
ag177
asg23
I1
sbsg36
(lp182
(lp183
g39
ag39
ag39
ag39
ag40
ag39
ag40
ag40
ag40
ag40
ag39
ag40
ag39
ag40
ag39
ag40
ag39
ag39
ag40
ag39
ag39
aa(lp184
g39
ag40
ag39
ag39
ag40
ag39
ag40
ag40
ag39
ag39
ag40
ag40
ag39
ag40
ag40
ag40
ag39
ag39
ag40
ag40
ag39
aa(lp185
g40
ag40
ag39
ag39
ag39
ag40
ag40
ag40
ag39
ag39
ag39
ag40
ag39
ag40
ag39
ag40
ag39
ag39
ag40
ag39
ag39
aa(lp186
g40
ag39
ag40
ag39
ag39
ag39
ag39
ag40
ag39
ag39
ag39
ag40
ag40
ag40
ag40
ag40
ag40
ag39
ag40
ag40
ag39
aa(lp187
g40
ag40
ag40
ag39
ag39
ag39
ag39
ag40
ag40
ag39
ag39
ag40
ag40
ag40
ag39
ag40
ag40
ag39
ag40
ag40
ag39
aa(lp188
g40
ag39
ag39
ag40
ag40
ag40
ag40
ag40
ag39
ag40
ag40
ag40
ag39
ag40
ag40
ag40
ag39
ag39
ag40
ag39
ag39
aasg41
(lp189
g164
ag179
ag158
ag165
ag166
ag175
ag159
ag167
ag176
ag156
ag177
asg23
I0
sbsg25
(iid3_node
node
p190
(dp191
g2
S'XK'
p192
sg8
g138
sg4
(iid3_node
node
p193
(dp194
g2
g47
sg8
g190
sg4
(iid3_node
node
p195
(dp196
g23
I0
sg8
g193
sg24
I01
sbsg25
(iid3_node
node
p197
(dp198
g2
S'XJ'
p199
sg8
g193
sg4
(iid3_node
node
p200
(dp201
g23
I1
sg8
g197
sg24
I01
sbsg25
(iid3_node
node
p202
(dp203
g23
I0
sg8
g197
sg24
I01
sbsg36
(lp204
(lp205
g39
ag39
ag39
ag40
ag40
ag39
ag40
ag40
ag40
ag40
ag39
ag39
ag40
ag40
ag39
ag39
ag39
ag39
ag40
ag40
ag40
aa(lp206
g39
ag40
ag39
ag40
ag40
ag40
ag39
ag40
ag40
ag40
ag40
ag40
ag39
ag40
ag40
ag39
ag40
ag39
ag40
ag40
ag40
aa(lp207
g39
ag40
ag39
ag39
ag40
ag40
ag39
ag40
ag40
ag40
ag40
ag39
ag40
ag40
ag40
ag39
ag40
ag39
ag40
ag39
ag40
aasg41
(lp208
(lp209
g39
ag39
ag39
ag39
ag39
ag40
ag39
ag40
ag39
ag40
ag40
ag40
ag40
ag40
ag39
ag39
ag40
ag39
ag40
ag40
ag39
aasg23
I1
sbsg36
(lp210
(lp211
g39
ag40
ag40
ag40
ag40
ag40
ag40
ag40
ag39
ag40
ag39
ag39
ag40
ag40
ag40
ag39
ag40
ag39
ag40
ag40
ag39
aa(lp212
g40
ag40
ag40
ag40
ag39
ag39
ag39
ag40
ag40
ag40
ag40
ag40
ag39
ag40
ag40
ag39
ag39
ag39
ag40
ag40
ag39
aa(lp213
g40
ag40
ag40
ag39
ag40
ag40
ag40
ag40
ag40
ag40
ag40
ag39
ag39
ag40
ag39
ag39
ag39
ag39
ag40
ag40
ag39
aasg41
(lp214
g205
ag206
ag207
ag209
asg23
I0
sbsg25
(iid3_node
node
p215
(dp216
g2
S'XC'
p217
sg8
g190
sg4
(iid3_node
node
p218
(dp219
g23
I1
sg8
g215
sg24
I01
sbsg25
(iid3_node
node
p220
(dp221
g2
g50
sg8
g215
sg4
(iid3_node
node
p222
(dp223
g2
g98
sg8
g220
sg4
(iid3_node
node
p224
(dp225
g2
g17
sg8
g222
sg4
(iid3_node
node
p226
(dp227
g23
I1
sg8
g224
sg24
I01
sbsg25
(iid3_node
node
p228
(dp229
g23
I0
sg8
g224
sg24
I01
sbsg36
(lp230
(lp231
g39
ag39
ag40
ag40
ag40
ag39
ag39
ag40
ag40
ag39
ag40
ag40
ag39
ag40
ag39
ag39
ag40
ag39
ag40
ag40
ag40
aasg41
(lp232
(lp233
g40
ag39
ag40
ag40
ag40
ag40
ag40
ag40
ag40
ag39
ag39
ag40
ag39
ag40
ag39
ag39
ag40
ag39
ag40
ag40
ag39
aasg23
I1
sbsg25
(iid3_node
node
p234
(dp235
g23
I0
sg8
g222
sg24
I01
sbsg36
(lp236
g233
ag231
asg41
(lp237
(lp238
g40
ag39
ag40
ag39
ag40
ag40
ag40
ag40
ag39
ag39
ag40
ag40
ag40
ag40
ag39
ag39
ag40
ag39
ag40
ag39
ag39
aa(lp239
g39
ag39
ag39
ag39
ag40
ag39
ag39
ag40
ag40
ag39
ag39
ag40
ag39
ag40
ag40
ag39
ag40
ag39
ag40
ag39
ag39
aasg23
I0
sbsg25
(iid3_node
node
p240
(dp241
g2
g20
sg8
g220
sg4
(iid3_node
node
p242
(dp243
g23
I1
sg8
g240
sg24
I01
sbsg25
(iid3_node
node
p244
(dp245
g2
S'XE'
p246
sg8
g240
sg4
(iid3_node
node
p247
(dp248
g23
I1
sg8
g244
sg24
I01
sbsg25
(iid3_node
node
p249
(dp250
g23
I0
sg8
g244
sg24
I01
sbsg36
(lp251
(lp252
g39
ag39
ag40
ag40
ag40
ag40
ag39
ag40
ag40
ag39
ag40
ag39
ag39
ag40
ag40
ag39
ag39
ag39
ag40
ag40
ag40
aa(lp253
g40
ag39
ag39
ag40
ag39
ag39
ag39
ag40
ag39
ag39
ag40
ag40
ag40
ag40
ag40
ag39
ag39
ag39
ag40
ag39
ag40
aa(lp254
g40
ag39
ag39
ag40
ag40
ag40
ag39
ag40
ag40
ag39
ag39
ag40
ag39
ag40
ag40
ag39
ag39
ag39
ag40
ag40
ag40
aasg41
(lp255
(lp256
g40
ag39
ag40
ag39
ag40
ag40
ag39
ag40
ag39
ag39
ag40
ag40
ag40
ag40
ag40
ag39
ag39
ag39
ag40
ag40
ag39
aasg23
I1
sbsg36
(lp257
(lp258
g39
ag39
ag39
ag39
ag40
ag40
ag40
ag40
ag40
ag39
ag40
ag40
ag40
ag40
ag40
ag39
ag39
ag39
ag40
ag39
ag40
aa(lp259
g40
ag39
ag40
ag40
ag39
ag39
ag40
ag40
ag39
ag39
ag40
ag40
ag39
ag40
ag40
ag39
ag39
ag39
ag40
ag40
ag40
aa(lp260
g40
ag39
ag40
ag39
ag40
ag40
ag40
ag40
ag39
ag39
ag40
ag40
ag40
ag40
ag39
ag39
ag39
ag39
ag40
ag39
ag40
aa(lp261
g39
ag39
ag40
ag39
ag40
ag39
ag40
ag40
ag39
ag39
ag39
ag39
ag40
ag40
ag39
ag39
ag39
ag39
ag40
ag39
ag40
aa(lp262
g40
ag39
ag39
ag39
ag40
ag40
ag40
ag40
ag40
ag39
ag40
ag40
ag39
ag40
ag40
ag39
ag39
ag39
ag40
ag40
ag40
aasg41
(lp263
g252
ag256
ag253
ag254
asg23
I1
sbsg36
(lp264
g238
ag239
ag233
ag231
asg41
(lp265
g258
ag252
ag256
ag253
ag259
ag254
ag260
ag261
ag262
asg23
I1
sbsg36
(lp266
(lp267
g40
ag40
ag39
ag40
ag39
ag39
ag40
ag40
ag40
ag39
ag40
ag39
ag39
ag40
ag40
ag39
ag39
ag39
ag40
ag39
ag40
aa(lp268
g39
ag40
ag40
ag40
ag40
ag40
ag39
ag40
ag40
ag39
ag40
ag40
ag39
ag40
ag40
ag39
ag40
ag39
ag40
ag39
ag40
aa(lp269
g39
ag40
ag39
ag39
ag40
ag40
ag40
ag40
ag39
ag39
ag39
ag40
ag40
ag40
ag39
ag39
ag39
ag39
ag40
ag40
ag40
aa(lp270
g40
ag40
ag39
ag39
ag39
ag39
ag40
ag40
ag40
ag39
ag40
ag40
ag40
ag40
ag40
ag39
ag39
ag39
ag40
ag40
ag40
aa(lp271
g40
ag40
ag40
ag40
ag40
ag39
ag40
ag40
ag40
ag39
ag39
ag40
ag39
ag40
ag40
ag39
ag39
ag39
ag40
ag39
ag40
aa(lp272
g39
ag40
ag40
ag39
ag40
ag40
ag40
ag40
ag39
ag39
ag39
ag40
ag40
ag40
ag40
ag39
ag40
ag39
ag40
ag40
ag40
aa(lp273
g40
ag40
ag39
ag40
ag39
ag39
ag40
ag40
ag40
ag39
ag40
ag40
ag39
ag40
ag40
ag39
ag40
ag39
ag40
ag39
ag40
aa(lp274
g40
ag40
ag39
ag39
ag39
ag39
ag39
ag40
ag40
ag39
ag39
ag40
ag40
ag40
ag40
ag39
ag40
ag39
ag40
ag40
ag40
aa(lp275
g40
ag40
ag40
ag40
ag39
ag39
ag40
ag40
ag40
ag39
ag39
ag39
ag40
ag40
ag40
ag39
ag39
ag39
ag40
ag39
ag40
aa(lp276
g40
ag40
ag40
ag40
ag40
ag40
ag40
ag40
ag39
ag39
ag39
ag40
ag40
ag40
ag40
ag39
ag39
ag39
ag40
ag39
ag40
aa(lp277
g40
ag40
ag39
ag39
ag39
ag39
ag40
ag40
ag40
ag39
ag40
ag40
ag40
ag40
ag40
ag39
ag39
ag39
ag40
ag39
ag40
aa(lp278
g40
ag40
ag40
ag39
ag40
ag40
ag39
ag40
ag39
ag39
ag40
ag40
ag40
ag40
ag40
ag39
ag40
ag39
ag40
ag40
ag40
aa(lp279
g39
ag40
ag40
ag40
ag40
ag39
ag40
ag40
ag40
ag39
ag40
ag39
ag40
ag40
ag40
ag39
ag39
ag39
ag40
ag40
ag40
aasg41
(lp280
g258
ag238
ag252
ag239
ag256
ag253
ag233
ag259
ag254
ag260
ag261
ag231
ag262
asg23
I1
sbsg36
(lp281
g205
ag206
ag211
ag212
ag207
ag209
ag213
asg41
(lp282
g258
ag238
ag267
ag268
ag252
ag269
ag270
ag239
ag271
ag256
ag272
ag273
ag253
ag274
ag233
ag259
ag275
ag276
ag277
ag254
ag278
ag260
ag279
ag261
ag231
ag262
asg23
I1
sbsg36
(lp283
g164
ag179
ag158
ag165
ag166
ag175
ag183
ag184
ag159
ag185
ag167
ag186
ag187
ag176
ag156
ag177
ag188
asg41
(lp284
g258
ag238
ag205
ag206
ag267
ag268
ag252
ag211
ag269
ag270
ag239
ag271
ag212
ag256
ag272
ag273
ag207
ag253
ag274
ag209
ag233
ag259
ag275
ag276
ag213
ag277
ag254
ag278
ag260
ag279
ag261
ag231
ag262
asg23
I1
sbsg36
(lp285
g73
ag90
ag43
ag64
ag65
ag130
ag91
ag74
ag38
ag56
ag92
ag121
ag88
ag66
ag108
ag119
ag67
ag57
ag75
ag122
ag123
ag93
ag131
ag94
ag132
ag59
ag110
ag111
ag95
ag76
ag44
ag68
ag133
ag69
asg41
(lp286
g258
ag238
ag205
ag206
ag164
ag267
ag268
ag252
ag179
ag158
ag211
ag165
ag166
ag175
ag183
ag269
ag270
ag239
ag271
ag212
ag256
ag184
ag159
ag272
ag185
ag273
ag207
ag167
ag253
ag186
ag274
ag209
ag233
ag187
ag259
ag176
ag275
ag276
ag213
ag277
ag156
ag254
ag278
ag177
ag188
ag260
ag279
ag261
ag231
ag262
asg23
I1
sbsg25
(iid3_node
node
p287
(dp288
g2
g20
sg8
g9
sg4
(iid3_node
node
p289
(dp290
g2
g199
sg8
g287
sg4
(iid3_node
node
p291
(dp292
g2
g14
sg8
g289
sg4
(iid3_node
node
p293
(dp294
g2
g82
sg8
g291
sg4
(iid3_node
node
p295
(dp296
g2
g28
sg8
g293
sg4
(iid3_node
node
p297
(dp298
g2
g98
sg8
g295
sg4
(iid3_node
node
p299
(dp300
g23
I0
sg8
g297
sg24
I01
sbsg25
(iid3_node
node
p301
(dp302
g23
I1
sg8
g297
sg24
I01
sbsg36
(lp303
(lp304
g40
ag40
ag40
ag40
ag40
ag40
ag40
ag40
ag40
ag40
ag40
ag40
ag39
ag40
ag40
ag40
ag39
ag40
ag39
ag40
ag39
aasg41
(lp305
(lp306
g39
ag39
ag40
ag39
ag39
ag40
ag40
ag40
ag40
ag39
ag39
ag39
ag40
ag40
ag39
ag40
ag39
ag40
ag39
ag39
ag40
aa(lp307
g39
ag40
ag39
ag39
ag39
ag40
ag40
ag40
ag40
ag39
ag39
ag39
ag39
ag40
ag39
ag40
ag40
ag40
ag39
ag39
ag40
aa(lp308
g39
ag40
ag39
ag40
ag40
ag40
ag40
ag40
ag40
ag40
ag40
ag39
ag39
ag40
ag40
ag40
ag39
ag40
ag39
ag39
ag40
aasg23
I1
sbsg25
(iid3_node
node
p309
(dp310
g23
I1
sg8
g295
sg24
I01
sbsg36
(lp311
g306
ag307
ag304
ag308
asg41
(lp312
(lp313
g40
ag39
ag40
ag40
ag39
ag40
ag40
ag40
ag40
ag39
ag39
ag39
ag39
ag40
ag39
ag39
ag39
ag40
ag39
ag39
ag40
aa(lp314
g40
ag39
ag39
ag40
ag40
ag40
ag40
ag40
ag40
ag40
ag39
ag40
ag39
ag40
ag40
ag39
ag39
ag40
ag39
ag40
ag40
aa(lp315
g39
ag39
ag40
ag39
ag39
ag40
ag40
ag40
ag40
ag39
ag39
ag39
ag40
ag40
ag39
ag39
ag39
ag40
ag39
ag40
ag40
aa(lp316
g40
ag39
ag40
ag39
ag40
ag40
ag40
ag40
ag40
ag39
ag40
ag40
ag40
ag40
ag39
ag39
ag39
ag40
ag39
ag40
ag40
aa(lp317
g40
ag39
ag39
ag39
ag40
ag40
ag40
ag40
ag40
ag40
ag40
ag40
ag40
ag40
ag39
ag39
ag39
ag40
ag39
ag40
ag40
aa(lp318
g40
ag39
ag40
ag40
ag39
ag40
ag40
ag40
ag40
ag39
ag39
ag40
ag40
ag40
ag39
ag39
ag39
ag40
ag39
ag40
ag40
aa(lp319
g40
ag39
ag39
ag40
ag39
ag40
ag40
ag40
ag40
ag39
ag40
ag39
ag39
ag40
ag40
ag39
ag39
ag40
ag39
ag40
ag40
aa(lp320
g40
ag40
ag39
ag40
ag39
ag40
ag40
ag40
ag40
ag39
ag39
ag40
ag40
ag40
ag40
ag39
ag39
ag40
ag39
ag40
ag40
aasg23
I1
sbsg25
(iid3_node
node
p321
(dp322
g2
S'XB'
p323
sg8
g293
sg4
(iid3_node
node
p324
(dp325
g2
g146
sg8
g321
sg4
(iid3_node
node
p326
(dp327
g2
g98
sg8
g324
sg4
(iid3_node
node
p328
(dp329
g23
I0
sg8
g326
sg24
I01
sbsg25
(iid3_node
node
p330
(dp331
g23
I1
sg8
g326
sg24
I01
sbsg36
(lp332
(lp333
g40
ag39
ag40
ag39
ag39
ag39
ag40
ag40
ag40
ag39
ag39
ag40
ag40
ag40
ag39
ag39
ag40
ag40
ag39
ag40
ag39
aasg41
(lp334
(lp335
g40
ag39
ag40
ag40
ag39
ag39
ag40
ag40
ag40
ag39
ag39
ag40
ag40
ag40
ag39
ag39
ag39
ag40
ag39
ag39
ag40
aasg23
I1
sbsg25
(iid3_node
node
p336
(dp337
g23
I1
sg8
g324
sg24
I01
sbsg36
(lp338
g333
ag335
asg41
(lp339
(lp340
g40
ag40
ag39
ag40
ag39
ag39
ag40
ag40
ag40
ag39
ag40
ag40
ag39
ag40
ag40
ag39
ag40
ag40
ag39
ag40
ag40
aa(lp341
g40
ag39
ag39
ag39
ag40
ag39
ag40
ag40
ag40
ag40
ag40
ag40
ag39
ag40
ag39
ag39
ag40
ag40
ag39
ag40
ag40
aa(lp342
g40
ag39
ag39
ag39
ag39
ag39
ag40
ag40
ag40
ag39
ag39
ag39
ag39
ag40
ag40
ag39
ag40
ag40
ag39
ag40
ag40
aasg23
I1
sbsg25
(iid3_node
node
p343
(dp344
g23
I0
sg8
g321
sg24
I01
sbsg36
(lp345
g340
ag341
ag333
ag342
ag335
asg41
(lp346
(lp347
g39
ag39
ag39
ag39
ag39
ag39
ag40
ag40
ag40
ag39
ag39
ag40
ag39
ag40
ag39
ag39
ag39
ag40
ag39
ag40
ag39
aa(lp348
g39
ag39
ag39
ag40
ag39
ag39
ag40
ag40
ag40
ag39
ag39
ag39
ag40
ag40
ag40
ag39
ag40
ag40
ag39
ag39
ag39
aasg23
I1
sbsg36
(lp349
g313
ag314
ag306
ag315
ag307
ag316
ag317
ag318
ag304
ag319
ag308
ag320
asg41
(lp350
g340
ag341
ag347
ag333
ag342
ag335
ag348
asg23
I1
sbsg25
(iid3_node
node
p351
(dp352
g23
I1
sg8
g291
sg24
I01
sbsg36
(lp353
g313
ag314
ag340
ag341
ag306
ag347
ag315
ag333
ag307
ag316
ag342
ag317
ag318
ag304
ag319
ag308
ag320
ag335
ag348
asg41
(lp354
(lp355
g39
ag39
ag40
ag40
ag40
ag39
ag40
ag40
ag40
ag39
ag40
ag40
ag40
ag40
ag40
ag39
ag40
ag39
ag39
ag40
ag40
aa(lp356
g40
ag40
ag39
ag40
ag39
ag39
ag40
ag40
ag40
ag39
ag40
ag39
ag40
ag40
ag40
ag40
ag39
ag39
ag39
ag39
ag40
aa(lp357
g39
ag39
ag39
ag40
ag40
ag39
ag40
ag40
ag40
ag40
ag39
ag40
ag39
ag40
ag39
ag39
ag39
ag39
ag39
ag40
ag40
aa(lp358
g39
ag40
ag39
ag40
ag40
ag39
ag40
ag40
ag40
ag40
ag40
ag39
ag40
ag40
ag40
ag40
ag39
ag39
ag39
ag40
ag40
aa(lp359
g40
ag39
ag39
ag39
ag40
ag39
ag40
ag40
ag40
ag39
ag39
ag40
ag39
ag40
ag40
ag39
ag40
ag39
ag39
ag39
ag40
aa(lp360
g40
ag40
ag39
ag39
ag40
ag40
ag40
ag40
ag40
ag40
ag39
ag40
ag40
ag40
ag40
ag39
ag39
ag39
ag39
ag39
ag40
aa(lp361
g39
ag40
ag39
ag40
ag40
ag40
ag40
ag40
ag40
ag40
ag40
ag40
ag39
ag40
ag40
ag39
ag40
ag39
ag39
ag39
ag40
aa(lp362
g40
ag39
ag39
ag39
ag40
ag40
ag40
ag40
ag40
ag40
ag40
ag40
ag40
ag40
ag40
ag39
ag39
ag39
ag39
ag40
ag40
aa(lp363
g40
ag39
ag39
ag39
ag40
ag39
ag40
ag40
ag40
ag40
ag39
ag40
ag39
ag40
ag39
ag39
ag39
ag39
ag39
ag40
ag40
aa(lp364
g39
ag39
ag39
ag40
ag40
ag39
ag40
ag40
ag40
ag39
ag40
ag39
ag39
ag40
ag39
ag39
ag40
ag39
ag39
ag39
ag40
aa(lp365
g40
ag40
ag39
ag39
ag39
ag39
ag40
ag40
ag40
ag40
ag39
ag39
ag40
ag40
ag40
ag40
ag40
ag39
ag39
ag39
ag40
aa(lp366
g39
ag40
ag39
ag39
ag40
ag39
ag40
ag40
ag40
ag40
ag40
ag39
ag39
ag40
ag39
ag40
ag39
ag39
ag39
ag39
ag40
aa(lp367
g39
ag40
ag39
ag40
ag40
ag39
ag40
ag40
ag40
ag39
ag39
ag39
ag40
ag40
ag39
ag39
ag39
ag39
ag39
ag40
ag40
aa(lp368
g40
ag39
ag39
ag40
ag40
ag40
ag40
ag40
ag40
ag39
ag40
ag40
ag39
ag40
ag40
ag39
ag39
ag39
ag39
ag40
ag40
aa(lp369
g39
ag40
ag39
ag39
ag40
ag39
ag40
ag40
ag40
ag39
ag39
ag39
ag39
ag40
ag39
ag39
ag39
ag39
ag39
ag40
ag40
aa(lp370
g40
ag39
ag40
ag39
ag39
ag39
ag40
ag40
ag40
ag39
ag39
ag39
ag39
ag40
ag39
ag40
ag39
ag39
ag39
ag39
ag40
aasg23
I1
sbsg25
(iid3_node
node
p371
(dp372
g2
g217
sg8
g289
sg4
(iid3_node
node
p373
(dp374
g2
g31
sg8
g371
sg4
(iid3_node
node
p375
(dp376
g2
g14
sg8
g373
sg4
(iid3_node
node
p377
(dp378
g23
I1
sg8
g375
sg24
I01
sbsg25
(iid3_node
node
p379
(dp380
g2
g50
sg8
g375
sg4
(iid3_node
node
p381
(dp382
g23
I0
sg8
g379
sg24
I01
sbsg25
(iid3_node
node
p383
(dp384
g23
I1
sg8
g379
sg24
I01
sbsg36
(lp385
(lp386
g40
ag40
ag39
ag40
ag39
ag39
ag40
ag40
ag39
ag39
ag39
ag40
ag40
ag40
ag40
ag39
ag40
ag39
ag39
ag40
ag39
aasg41
(lp387
(lp388
g40
ag40
ag39
ag40
ag39
ag39
ag40
ag40
ag39
ag39
ag39
ag40
ag40
ag40
ag40
ag39
ag39
ag39
ag39
ag40
ag40
aasg23
I1
sbsg36
(lp389
(lp390
g40
ag40
ag39
ag40
ag40
ag39
ag40
ag40
ag39
ag40
ag40
ag40
ag39
ag40
ag40
ag39
ag39
ag40
ag39
ag39
ag40
aa(lp391
g39
ag40
ag39
ag39
ag40
ag40
ag40
ag40
ag39
ag40
ag40
ag40
ag40
ag40
ag40
ag39
ag40
ag40
ag39
ag40
ag40
aasg41
(lp392
g388
ag386
asg23
I1
sbsg25
(iid3_node
node
p393
(dp394
g23
I0
sg8
g373
sg24
I01
sbsg36
(lp395
g390
ag388
ag386
ag391
asg41
(lp396
(lp397
g39
ag40
ag40
ag40
ag39
ag39
ag40
ag40
ag39
ag40
ag40
ag39
ag39
ag40
ag40
ag39
ag39
ag40
ag39
ag40
ag39
aa(lp398
g40
ag40
ag40
ag39
ag40
ag40
ag40
ag40
ag39
ag39
ag40
ag39
ag40
ag40
ag40
ag39
ag40
ag40
ag39
ag40
ag39
aa(lp399
g40
ag40
ag39
ag39
ag40
ag39
ag40
ag40
ag39
ag40
ag40
ag39
ag39
ag40
ag39
ag40
ag40
ag39
ag39
ag39
ag39
aasg23
I0
sbsg25
(iid3_node
node
p400
(dp401
g2
g146
sg8
g371
sg4
(iid3_node
node
p402
(dp403
g2
g82
sg8
g400
sg4
(iid3_node
node
p404
(dp405
g23
I0
sg8
g402
sg24
I01
sbsg25
(iid3_node
node
p406
(dp407
g2
S'XF'
p408
sg8
g402
sg4
(iid3_node
node
p409
(dp410
g23
I0
sg8
g406
sg24
I01
sbsg25
(iid3_node
node
p411
(dp412
g23
I1
sg8
g406
sg24
I01
sbsg36
(lp413
(lp414
g40
ag39
ag40
ag39
ag40
ag39
ag40
ag40
ag39
ag40
ag40
ag39
ag40
ag40
ag40
ag40
ag39
ag40
ag39
ag39
ag39
aa(lp415
g40
ag39
ag39
ag40
ag40
ag39
ag40
ag40
ag39
ag40
ag39
ag40
ag40
ag40
ag40
ag39
ag40
ag40
ag39
ag40
ag39
aasg41
(lp416
(lp417
g40
ag39
ag39
ag40
ag39
ag39
ag40
ag40
ag39
ag40
ag39
ag39
ag40
ag40
ag39
ag39
ag40
ag40
ag39
ag39
ag40
aa(lp418
g40
ag39
ag40
ag39
ag39
ag39
ag40
ag40
ag39
ag39
ag40
ag39
ag40
ag40
ag40
ag39
ag40
ag39
ag39
ag40
ag40
aa(lp419
g40
ag39
ag39
ag39
ag39
ag39
ag40
ag40
ag39
ag40
ag39
ag39
ag40
ag40
ag40
ag39
ag40
ag39
ag39
ag40
ag40
aa(lp420
g40
ag39
ag40
ag39
ag39
ag39
ag40
ag40
ag39
ag39
ag39
ag39
ag40
ag40
ag39
ag39
ag39
ag40
ag39
ag40
ag40
aa(lp421
g40
ag39
ag40
ag39
ag39
ag39
ag40
ag40
ag39
ag39
ag40
ag40
ag40
ag40
ag40
ag39
ag40
ag39
ag39
ag39
ag40
aasg23
I1
sbsg36
(lp422
(lp423
g39
ag39
ag39
ag40
ag39
ag40
ag40
ag40
ag39
ag39
ag39
ag40
ag40
ag40
ag40
ag39
ag39
ag40
ag39
ag39
ag39
aa(lp424
g40
ag39
ag40
ag39
ag39
ag40
ag40
ag40
ag39
ag39
ag40
ag39
ag40
ag40
ag39
ag39
ag39
ag39
ag39
ag40
ag39
aasg41
(lp425
g414
ag415
ag417
ag418
ag419
ag420
ag421
asg23
I1
sbsg25
(iid3_node
node
p426
(dp427
g23
I1
sg8
g400
sg24
I01
sbsg36
(lp428
g414
ag415
ag423
ag417
ag424
ag418
ag419
ag420
ag421
asg41
(lp429
(lp430
g40
ag39
ag40
ag40
ag39
ag39
ag40
ag40
ag39
ag39
ag39
ag39
ag39
ag40
ag40
ag40
ag40
ag39
ag39
ag39
ag40
aa(lp431
g39
ag39
ag40
ag39
ag40
ag39
ag40
ag40
ag39
ag39
ag40
ag40
ag39
ag40
ag39
ag39
ag40
ag39
ag39
ag39
ag40
aa(lp432
g39
ag39
ag39
ag40
ag40
ag39
ag40
ag40
ag39
ag39
ag39
ag39
ag39
ag40
ag39
ag39
ag39
ag40
ag39
ag40
ag40
aa(lp433
g40
ag39
ag40
ag40
ag39
ag40
ag40
ag40
ag39
ag39
ag39
ag39
ag39
ag40
ag39
ag40
ag39
ag40
ag39
ag40
ag40
aa(lp434
g39
ag39
ag39
ag40
ag40
ag40
ag40
ag40
ag39
ag40
ag39
ag39
ag39
ag40
ag39
ag40
ag39
ag39
ag39
ag40
ag40
aa(lp435
g39
ag39
ag40
ag39
ag40
ag40
ag40
ag40
ag39
ag39
ag40
ag39
ag39
ag40
ag39
ag40
ag39
ag40
ag39
ag40
ag40
aa(lp436
g40
ag39
ag39
ag39
ag40
ag39
ag40
ag40
ag39
ag40
ag39
ag40
ag39
ag40
ag39
ag39
ag40
ag39
ag39
ag40
ag40
aa(lp437
g40
ag39
ag39
ag39
ag40
ag40
ag40
ag40
ag39
ag39
ag39
ag40
ag39
ag40
ag40
ag39
ag39
ag39
ag39
ag40
ag40
aa(lp438
g39
ag39
ag39
ag39
ag39
ag40
ag40
ag40
ag39
ag39
ag39
ag39
ag39
ag40
ag40
ag40
ag39
ag40
ag39
ag39
ag40
aasg23
I1
sbsg36
(lp439
g390
ag397
ag398
ag388
ag399
ag386
ag391
asg41
(lp440
g430
ag414
ag415
ag423
ag417
ag431
ag432
ag433
ag424
ag418
ag434
ag419
ag435
ag420
ag436
ag437
ag438
ag421
asg23
I1
sbsg36
(lp441
g355
ag356
ag357
ag313
ag358
ag314
ag340
ag359
ag341
ag306
ag347
ag315
ag360
ag333
ag307
ag361
ag362
ag316
ag363
ag342
ag364
ag317
ag365
ag366
ag367
ag318
ag304
ag368
ag319
ag308
ag369
ag320
ag335
ag348
ag370
asg41
(lp442
g390
ag397
ag430
ag414
ag415
ag423
ag417
ag431
ag432
ag398
ag388
ag433
ag424
ag418
ag434
ag419
ag399
ag386
ag435
ag420
ag391
ag436
ag437
ag438
ag421
asg23
I1
sbsg25
(iid3_node
node
p443
(dp444
g2
S'XP'
p445
sg8
g287
sg4
(iid3_node
node
p446
(dp447
g2
g14
sg8
g443
sg4
(iid3_node
node
p448
(dp449
g23
I1
sg8
g446
sg24
I01
sbsg25
(iid3_node
node
p450
(dp451
g2
g47
sg8
g446
sg4
(iid3_node
node
p452
(dp453
g2
g31
sg8
g450
sg4
(iid3_node
node
p454
(dp455
g23
I1
sg8
g452
sg24
I01
sbsg25
(iid3_node
node
p456
(dp457
g2
g199
sg8
g452
sg4
(iid3_node
node
p458
(dp459
g23
I1
sg8
g456
sg24
I01
sbsg25
(iid3_node
node
p460
(dp461
g23
I0
sg8
g456
sg24
I01
sbsg36
(lp462
(lp463
g40
ag39
ag40
ag40
ag39
ag39
ag39
ag40
ag40
ag39
ag40
ag39
ag39
ag40
ag40
ag40
ag39
ag39
ag39
ag39
ag40
aa(lp464
g40
ag39
ag40
ag40
ag39
ag39
ag39
ag40
ag40
ag39
ag40
ag39
ag40
ag40
ag40
ag39
ag40
ag39
ag39
ag39
ag40
aasg41
(lp465
(lp466
g40
ag40
ag40
ag39
ag40
ag40
ag39
ag40
ag39
ag40
ag39
ag39
ag39
ag40
ag40
ag39
ag40
ag39
ag39
ag39
ag39
aa(lp467
g40
ag40
ag40
ag39
ag39
ag39
ag39
ag40
ag39
ag39
ag40
ag39
ag40
ag40
ag40
ag39
ag39
ag39
ag39
ag39
ag39
aasg23
I1
sbsg36
(lp468
(lp469
g40
ag39
ag40
ag39
ag40
ag39
ag39
ag40
ag40
ag39
ag39
ag40
ag40
ag40
ag40
ag39
ag40
ag39
ag39
ag40
ag40
aa(lp470
g40
ag40
ag40
ag40
ag40
ag40
ag39
ag40
ag39
ag39
ag39
ag40
ag39
ag40
ag40
ag39
ag40
ag39
ag39
ag39
ag40
aa(lp471
g39
ag39
ag40
ag40
ag40
ag39
ag39
ag40
ag39
ag39
ag39
ag40
ag39
ag40
ag40
ag39
ag39
ag39
ag39
ag39
ag40
aa(lp472
g40
ag40
ag40
ag39
ag40
ag40
ag39
ag40
ag39
ag39
ag39
ag40
ag40
ag40
ag40
ag39
ag40
ag39
ag39
ag39
ag40
aa(lp473
g40
ag40
ag40
ag39
ag40
ag40
ag39
ag40
ag39
ag39
ag40
ag40
ag39
ag40
ag40
ag39
ag40
ag39
ag39
ag39
ag40
aa(lp474
g39
ag40
ag40
ag40
ag40
ag39
ag39
ag40
ag39
ag39
ag39
ag40
ag39
ag40
ag40
ag39
ag40
ag39
ag39
ag40
ag40
aasg41
(lp475
g463
ag466
ag467
ag464
asg23
I1
sbsg25
(iid3_node
node
p476
(dp477
g2
g217
sg8
g450
sg4
(iid3_node
node
p478
(dp479
g23
I0
sg8
g476
sg24
I01
sbsg25
(iid3_node
node
p480
(dp481
g2
g98
sg8
g476
sg4
(iid3_node
node
p482
(dp483
g2
g82
sg8
g480
sg4
(iid3_node
node
p484
(dp485
g23
I0
sg8
g482
sg24
I01
sbsg25
(iid3_node
node
p486
(dp487
g23
I1
sg8
g482
sg24
I01
sbsg36
(lp488
(lp489
g40
ag39
ag39
ag40
ag40
ag40
ag39
ag40
ag40
ag40
ag39
ag40
ag39
ag40
ag40
ag39
ag40
ag39
ag39
ag40
ag39
aasg41
(lp490
(lp491
g40
ag39
ag39
ag40
ag40
ag39
ag39
ag40
ag40
ag40
ag39
ag40
ag39
ag40
ag40
ag39
ag40
ag39
ag39
ag40
ag40
aa(lp492
g40
ag39
ag39
ag40
ag39
ag39
ag39
ag40
ag39
ag39
ag40
ag39
ag40
ag40
ag40
ag40
ag40
ag39
ag39
ag40
ag40
aasg23
I1
sbsg25
(iid3_node
node
p493
(dp494
g2
g28
sg8
g480
sg4
(iid3_node
node
p495
(dp496
g23
I0
sg8
g493
sg24
I01
sbsg25
(iid3_node
node
p497
(dp498
g23
I1
sg8
g493
sg24
I01
sbsg36
(lp499
(lp500
g39
ag39
ag39
ag40
ag39
ag39
ag39
ag40
ag40
ag39
ag39
ag40
ag40
ag40
ag40
ag40
ag39
ag39
ag39
ag39
ag39
aa(lp501
g40
ag39
ag39
ag39
ag40
ag39
ag39
ag40
ag39
ag39
ag40
ag39
ag39
ag40
ag40
ag40
ag40
ag39
ag39
ag39
ag39
aasg41
(lp502
(lp503
g39
ag39
ag39
ag39
ag40
ag40
ag39
ag40
ag39
ag40
ag39
ag40
ag40
ag40
ag40
ag39
ag39
ag39
ag39
ag39
ag40
aasg23
I0
sbsg36
(lp504
g491
ag489
ag492
asg41
(lp505
g503
ag500
ag501
asg23
I1
sbsg36
(lp506
(lp507
g39
ag40
ag39
ag39
ag39
ag39
ag39
ag40
ag39
ag40
ag40
ag40
ag40
ag40
ag40
ag39
ag39
ag39
ag39
ag40
ag39
aasg41
(lp508
g503
ag500
ag491
ag501
ag489
ag492
asg23
I0
sbsg36
(lp509
g469
ag470
ag463
ag471
ag466
ag472
ag467
ag464
ag473
ag474
asg41
(lp510
g503
ag507
ag500
ag491
ag501
ag489
ag492
asg23
I1
sbsg36
(lp511
(lp512
g40
ag40
ag39
ag40
ag39
ag39
ag39
ag40
ag40
ag40
ag40
ag39
ag40
ag40
ag40
ag39
ag39
ag40
ag39
ag40
ag40
aa(lp513
g39
ag39
ag39
ag39
ag39
ag40
ag39
ag40
ag39
ag39
ag40
ag39
ag40
ag40
ag40
ag40
ag39
ag40
ag39
ag39
ag40
aa(lp514
g39
ag40
ag39
ag40
ag39
ag40
ag39
ag40
ag39
ag40
ag39
ag40
ag39
ag40
ag40
ag39
ag39
ag40
ag39
ag39
ag40
aa(lp515
g40
ag39
ag39
ag40
ag39
ag40
ag39
ag40
ag39
ag39
ag40
ag40
ag39
ag40
ag40
ag39
ag39
ag40
ag39
ag40
ag40
aa(lp516
g39
ag40
ag39
ag39
ag40
ag39
ag39
ag40
ag40
ag40
ag40
ag39
ag39
ag40
ag40
ag39
ag39
ag40
ag39
ag40
ag40
aa(lp517
g39
ag40
ag39
ag39
ag40
ag40
ag39
ag40
ag39
ag39
ag40
ag40
ag39
ag40
ag40
ag39
ag40
ag40
ag39
ag40
ag40
aa(lp518
g40
ag39
ag39
ag40
ag40
ag40
ag39
ag40
ag40
ag39
ag40
ag40
ag39
ag40
ag40
ag39
ag39
ag40
ag39
ag40
ag40
aa(lp519
g40
ag40
ag39
ag39
ag39
ag40
ag39
ag40
ag40
ag39
ag40
ag39
ag39
ag40
ag40
ag39
ag40
ag40
ag39
ag40
ag40
aa(lp520
g40
ag39
ag39
ag40
ag39
ag40
ag39
ag40
ag40
ag39
ag40
ag39
ag39
ag40
ag40
ag39
ag39
ag40
ag39
ag39
ag40
aa(lp521
g39
ag40
ag39
ag40
ag39
ag40
ag39
ag40
ag40
ag39
ag40
ag39
ag39
ag40
ag40
ag39
ag40
ag40
ag39
ag39
ag40
aa(lp522
g40
ag40
ag39
ag40
ag39
ag40
ag39
ag40
ag40
ag39
ag40
ag40
ag39
ag40
ag40
ag39
ag39
ag40
ag39
ag40
ag40
aa(lp523
g40
ag40
ag39
ag40
ag39
ag40
ag39
ag40
ag40
ag40
ag40
ag39
ag40
ag40
ag40
ag40
ag39
ag40
ag39
ag40
ag40
aa(lp524
g39
ag39
ag39
ag40
ag40
ag40
ag39
ag40
ag39
ag39
ag40
ag39
ag40
ag40
ag40
ag40
ag39
ag40
ag39
ag40
ag40
aa(lp525
g40
ag40
ag39
ag40
ag39
ag39
ag39
ag40
ag39
ag40
ag39
ag40
ag39
ag40
ag40
ag39
ag40
ag40
ag39
ag39
ag40
aa(lp526
g39
ag39
ag39
ag40
ag39
ag40
ag39
ag40
ag40
ag39
ag40
ag40
ag39
ag40
ag40
ag39
ag39
ag40
ag39
ag40
ag40
aa(lp527
g40
ag40
ag39
ag40
ag39
ag39
ag39
ag40
ag39
ag39
ag40
ag40
ag40
ag40
ag40
ag39
ag40
ag40
ag39
ag40
ag40
aasg41
(lp528
g503
ag469
ag470
ag463
ag507
ag471
ag500
ag466
ag472
ag467
ag464
ag491
ag501
ag489
ag473
ag474
ag492
asg23
I1
sbsg25
(iid3_node
node
p529
(dp530
g2
g408
sg8
g443
sg4
(iid3_node
node
p531
(dp532
g2
g50
sg8
g529
sg4
(iid3_node
node
p533
(dp534
g2
g28
sg8
g531
sg4
(iid3_node
node
p535
(dp536
g23
I0
sg8
g533
sg24
I01
sbsg25
(iid3_node
node
p537
(dp538
g23
I1
sg8
g533
sg24
I01
sbsg36
(lp539
(lp540
g39
ag39
ag40
ag39
ag40
ag40
ag39
ag40
ag40
ag39
ag39
ag40
ag40
ag40
ag39
ag40
ag40
ag40
ag39
ag40
ag39
aa(lp541
g39
ag39
ag39
ag40
ag40
ag39
ag39
ag40
ag39
ag39
ag40
ag39
ag39
ag40
ag39
ag40
ag40
ag40
ag39
ag39
ag39
aasg41
(lp542
(lp543
g39
ag39
ag40
ag40
ag40
ag39
ag39
ag40
ag40
ag39
ag39
ag40
ag40
ag40
ag39
ag39
ag40
ag40
ag39
ag39
ag40
aasg23
I0
sbsg25
(iid3_node
node
p544
(dp545
g2
g17
sg8
g531
sg4
(iid3_node
node
p546
(dp547
g23
I1
sg8
g544
sg24
I01
sbsg25
(iid3_node
node
p548
(dp549
g2
g98
sg8
g544
sg4
(iid3_node
node
p550
(dp551
g23
I1
sg8
g548
sg24
I01
sbsg25
(iid3_node
node
p552
(dp553
g23
I0
sg8
g548
sg24
I01
sbsg36
(lp554
(lp555
g39
ag39
ag40
ag40
ag40
ag40
ag39
ag40
ag39
ag39
ag39
ag40
ag39
ag40
ag39
ag39
ag39
ag39
ag39
ag40
ag40
aasg41
(lp556
(lp557
g39
ag39
ag39
ag40
ag40
ag40
ag39
ag40
ag39
ag40
ag39
ag40
ag39
ag40
ag39
ag39
ag39
ag39
ag39
ag39
ag39
aasg23
I1
sbsg36
(lp558
(lp559
g39
ag39
ag40
ag39
ag40
ag39
ag39
ag40
ag40
ag39
ag40
ag39
ag40
ag40
ag39
ag39
ag39
ag40
ag39
ag39
ag40
aa(lp560
g40
ag39
ag39
ag40
ag40
ag39
ag39
ag40
ag39
ag39
ag40
ag40
ag39
ag40
ag39
ag39
ag39
ag39
ag39
ag39
ag40
aa(lp561
g39
ag39
ag39
ag40
ag40
ag40
ag39
ag40
ag39
ag40
ag40
ag39
ag40
ag40
ag39
ag40
ag39
ag39
ag39
ag39
ag40
aa(lp562
g39
ag40
ag39
ag39
ag40
ag40
ag39
ag40
ag40
ag40
ag40
ag39
ag40
ag40
ag39
ag39
ag39
ag39
ag39
ag39
ag40
aasg41
(lp563
g555
ag557
asg23
I1
sbsg36
(lp564
g543
ag540
ag541
asg41
(lp565
g559
ag560
ag561
ag555
ag562
ag557
asg23
I1
sbsg25
(iid3_node
node
p566
(dp567
g23
I0
sg8
g529
sg24
I01
sbsg36
(lp568
g559
ag543
ag560
ag561
ag540
ag555
ag562
ag557
ag541
asg41
(lp569
(lp570
g40
ag39
ag40
ag40
ag39
ag39
ag39
ag40
ag39
ag40
ag40
ag39
ag39
ag40
ag39
ag39
ag39
ag39
ag39
ag40
ag39
aa(lp571
g39
ag40
ag39
ag40
ag39
ag39
ag39
ag40
ag40
ag40
ag39
ag39
ag40
ag40
ag39
ag39
ag40
ag40
ag39
ag40
ag39
aa(lp572
g39
ag39
ag40
ag39
ag39
ag40
ag39
ag40
ag40
ag40
ag40
ag39
ag40
ag40
ag39
ag39
ag39
ag40
ag39
ag40
ag39
aa(lp573
g40
ag39
ag39
ag40
ag39
ag39
ag39
ag40
ag39
ag39
ag39
ag40
ag39
ag40
ag39
ag39
ag39
ag40
ag39
ag40
ag39
aa(lp574
g40
ag39
ag39
ag40
ag39
ag40
ag39
ag40
ag40
ag39
ag40
ag40
ag40
ag40
ag39
ag39
ag40
ag39
ag39
ag40
ag39
aa(lp575
g39
ag40
ag40
ag39
ag39
ag40
ag39
ag40
ag40
ag39
ag40
ag40
ag39
ag40
ag39
ag40
ag40
ag40
ag39
ag39
ag39
aa(lp576
g39
ag40
ag39
ag39
ag39
ag39
ag39
ag40
ag40
ag40
ag39
ag40
ag40
ag40
ag39
ag39
ag40
ag39
ag39
ag39
ag39
aa(lp577
g39
ag40
ag39
ag39
ag39
ag40
ag39
ag40
ag39
ag39
ag40
ag39
ag39
ag40
ag39
ag40
ag39
ag39
ag39
ag40
ag39
aa(lp578
g40
ag40
ag39
ag39
ag39
ag39
ag39
ag40
ag40
ag39
ag39
ag40
ag39
ag40
ag39
ag39
ag39
ag39
ag39
ag40
ag39
aa(lp579
g39
ag39
ag40
ag40
ag39
ag39
ag39
ag40
ag39
ag39
ag39
ag39
ag39
ag40
ag39
ag39
ag39
ag40
ag39
ag40
ag39
aasg23
I0
sbsg36
(lp580
g503
ag469
ag512
ag513
ag470
ag463
ag507
ag514
ag471
ag515
ag500
ag466
ag472
ag516
ag517
ag467
ag518
ag464
ag519
ag520
ag491
ag501
ag521
ag522
ag523
ag524
ag489
ag473
ag525
ag474
ag526
ag527
ag492
asg41
(lp581
g559
ag570
ag571
ag543
ag560
ag572
ag561
ag540
ag573
ag555
ag562
ag574
ag557
ag575
ag576
ag577
ag541
ag578
ag579
asg23
I1
sbsg36
(lp582
g390
ag397
ag355
ag356
ag430
ag357
ag313
ag358
ag314
ag414
ag415
ag423
ag340
ag359
ag417
ag341
ag431
ag306
ag432
ag398
ag388
ag347
ag433
ag315
ag424
ag360
ag418
ag333
ag434
ag419
ag307
ag399
ag361
ag362
ag316
ag363
ag342
ag364
ag317
ag386
ag365
ag435
ag420
ag366
ag367
ag318
ag304
ag368
ag319
ag308
ag391
ag369
ag320
ag436
ag335
ag348
ag437
ag370
ag438
ag421
asg41
(lp583
g503
ag559
ag570
ag469
ag571
ag543
ag560
ag512
ag513
ag470
ag463
ag572
ag507
ag561
ag514
ag471
ag540
ag515
ag500
ag466
ag472
ag573
ag516
ag517
ag467
ag518
ag464
ag519
ag520
ag555
ag491
ag562
ag501
ag521
ag574
ag557
ag522
ag575
ag523
ag524
ag576
ag489
ag473
ag525
ag577
ag541
ag474
ag526
ag527
ag578
ag492
ag579
asg23
I1
sbsg36
(lp584
g258
ag73
ag238
ag205
ag90
ag206
ag164
ag43
ag64
ag267
ag65
ag268
ag130
ag91
ag252
ag74
ag179
ag158
ag38
ag211
ag165
ag166
ag175
ag56
ag183
ag269
ag270
ag239
ag92
ag121
ag88
ag66
ag271
ag108
ag119
ag67
ag212
ag256
ag57
ag184
ag159
ag75
ag122
ag123
ag272
ag93
ag185
ag273
ag207
ag167
ag253
ag131
ag186
ag274
ag209
ag233
ag94
ag187
ag259
ag176
ag275
ag132
ag59
ag276
ag110
ag111
ag213
ag277
ag95
ag76
ag156
ag44
ag254
ag68
ag133
ag69
ag278
ag177
ag188
ag260
ag279
ag261
ag231
ag262
asg41
(lp585
g390
ag503
ag397
ag559
ag570
ag355
ag356
ag469
ag571
ag543
ag430
ag357
ag560
ag512
ag513
ag313
ag470
ag463
ag572
ag358
ag507
ag561
ag514
ag471
ag314
ag414
ag540
ag515
ag500
ag466
ag472
ag415
ag423
ag573
ag340
ag516
ag517
ag359
ag417
ag341
ag431
ag467
ag518
ag306
ag432
ag464
ag398
ag388
ag347
ag519
ag433
ag315
ag520
ag555
ag424
ag360
ag418
ag333
ag434
ag419
ag307
ag399
ag361
ag362
ag316
ag363
ag342
ag491
ag364
ag317
ag562
ag501
ag521
ag574
ag386
ag365
ag557
ag522
ag575
ag435
ag523
ag420
ag524
ag366
ag367
ag576
ag318
ag304
ag368
ag319
ag489
ag308
ag473
ag525
ag577
ag541
ag391
ag369
ag474
ag320
ag436
ag335
ag348
ag437
ag526
ag370
ag438
ag421
ag527
ag578
ag492
ag579
asg23
I1
sbsg25
(iid3_node
node
p586
(dp587
g2
g31
sg8
g5
sg4
(iid3_node
node
p588
(dp589
g2
g28
sg8
g586
sg4
(iid3_node
node
p590
(dp591
g23
I0
sg8
g588
sg24
I01
sbsg25
(iid3_node
node
p592
(dp593
g2
g408
sg8
g588
sg4
(iid3_node
node
p594
(dp595
g23
I0
sg8
g592
sg24
I01
sbsg25
(iid3_node
node
p596
(dp597
g2
g17
sg8
g592
sg4
(iid3_node
node
p598
(dp599
g2
g445
sg8
g596
sg4
(iid3_node
node
p600
(dp601
g2
g11
sg8
g598
sg4
(iid3_node
node
p602
(dp603
g2
g199
sg8
g600
sg4
(iid3_node
node
p604
(dp605
g23
I0
sg8
g602
sg24
I01
sbsg25
(iid3_node
node
p606
(dp607
g23
I1
sg8
g602
sg24
I01
sbsg36
(lp608
(lp609
g39
ag39
ag39
ag40
ag39
ag40
ag39
ag39
ag40
ag39
ag40
ag40
ag39
ag40
ag40
ag39
ag39
ag39
ag40
ag39
ag39
aa(lp610
g39
ag39
ag40
ag40
ag39
ag40
ag39
ag39
ag40
ag40
ag40
ag40
ag39
ag40
ag40
ag39
ag40
ag40
ag40
ag40
ag39
aasg41
(lp611
(lp612
g39
ag40
ag39
ag40
ag39
ag40
ag40
ag39
ag39
ag39
ag40
ag40
ag39
ag40
ag40
ag39
ag39
ag40
ag40
ag39
ag40
aasg23
I0
sbsg25
(iid3_node
node
p613
(dp614
g23
I1
sg8
g600
sg24
I01
sbsg36
(lp615
g609
ag610
ag612
asg41
(lp616
(lp617
g39
ag40
ag39
ag40
ag39
ag40
ag39
ag39
ag39
ag40
ag40
ag40
ag39
ag40
ag40
ag39
ag40
ag40
ag39
ag39
ag40
aa(lp618
g39
ag40
ag39
ag40
ag39
ag40
ag40
ag39
ag39
ag39
ag40
ag40
ag39
ag40
ag40
ag39
ag39
ag40
ag39
ag39
ag40
aa(lp619
g40
ag39
ag39
ag40
ag39
ag39
ag39
ag39
ag39
ag40
ag40
ag40
ag39
ag40
ag40
ag39
ag39
ag39
ag39
ag40
ag40
aa(lp620
g40
ag39
ag39
ag40
ag39
ag39
ag40
ag39
ag40
ag39
ag40
ag40
ag40
ag40
ag40
ag39
ag40
ag40
ag39
ag40
ag40
aasg23
I1
sbsg25
(iid3_node
node
p621
(dp622
g23
I0
sg8
g598
sg24
I01
sbsg36
(lp623
g617
ag618
ag609
ag610
ag619
ag620
ag612
asg41
(lp624
(lp625
g39
ag39
ag39
ag39
ag39
ag39
ag39
ag39
ag40
ag39
ag40
ag40
ag40
ag40
ag39
ag39
ag39
ag40
ag40
ag39
ag39
aa(lp626
g40
ag39
ag39
ag40
ag39
ag39
ag39
ag39
ag39
ag39
ag40
ag40
ag39
ag40
ag39
ag39
ag40
ag40
ag39
ag40
ag39
aa(lp627
g40
ag39
ag40
ag40
ag39
ag39
ag40
ag39
ag39
ag39
ag40
ag40
ag39
ag40
ag39
ag39
ag39
ag39
ag39
ag39
ag39
aasg23
I1
sbsg25
(iid3_node
node
p628
(dp629
g2
g217
sg8
g596
sg4
(iid3_node
node
p630
(dp631
g2
g20
sg8
g628
sg4
(iid3_node
node
p632
(dp633
g2
g98
sg8
g630
sg4
(iid3_node
node
p634
(dp635
g23
I1
sg8
g632
sg24
I01
sbsg25
(iid3_node
node
p636
(dp637
g2
g50
sg8
g632
sg4
(iid3_node
node
p638
(dp639
g23
I0
sg8
g636
sg24
I01
sbsg25
(iid3_node
node
p640
(dp641
g2
g11
sg8
g636
sg4
(iid3_node
node
p642
(dp643
g23
I1
sg8
g640
sg24
I01
sbsg25
(iid3_node
node
p644
(dp645
g23
I0
sg8
g640
sg24
I01
sbsg36
(lp646
(lp647
g39
ag40
ag39
ag40
ag39
ag40
ag40
ag39
ag39
ag40
ag39
ag40
ag39
ag40
ag39
ag39
ag39
ag40
ag40
ag39
ag40
aasg41
(lp648
(lp649
g40
ag40
ag39
ag40
ag39
ag40
ag40
ag39
ag39
ag39
ag39
ag40
ag39
ag40
ag40
ag39
ag39
ag40
ag39
ag39
ag39
aasg23
I1
sbsg36
(lp650
(lp651
g39
ag40
ag40
ag39
ag39
ag39
ag40
ag39
ag40
ag40
ag39
ag40
ag39
ag40
ag40
ag39
ag40
ag40
ag40
ag39
ag39
aa(lp652
g40
ag40
ag40
ag39
ag39
ag39
ag40
ag39
ag39
ag40
ag39
ag40
ag40
ag40
ag39
ag39
ag40
ag39
ag40
ag39
ag39
aasg41
(lp653
g647
ag649
asg23
I0
sbsg36
(lp654
(lp655
g40
ag40
ag40
ag39
ag39
ag39
ag40
ag39
ag40
ag39
ag39
ag40
ag39
ag40
ag40
ag39
ag40
ag39
ag39
ag40
ag40
aasg41
(lp656
g651
ag647
ag652
ag649
asg23
I0
sbsg25
(iid3_node
node
p657
(dp658
g23
I1
sg8
g630
sg24
I01
sbsg36
(lp659
g651
ag647
ag655
ag652
ag649
asg41
(lp660
(lp661
g39
ag40
ag39
ag39
ag39
ag40
ag39
ag39
ag40
ag40
ag39
ag40
ag39
ag40
ag39
ag39
ag39
ag40
ag40
ag39
ag40
aa(lp662
g40
ag40
ag39
ag40
ag39
ag39
ag39
ag39
ag40
ag39
ag39
ag40
ag40
ag40
ag40
ag39
ag40
ag39
ag39
ag39
ag40
aasg23
I1
sbsg25
(iid3_node
node
p663
(dp664
g23
I1
sg8
g628
sg24
I01
sbsg36
(lp665
g661
ag651
ag662
ag647
ag655
ag652
ag649
asg41
(lp666
(lp667
g40
ag39
ag40
ag39
ag39
ag39
ag40
ag39
ag39
ag40
ag39
ag40
ag39
ag40
ag39
ag39
ag40
ag40
ag39
ag39
ag40
aa(lp668
g40
ag39
ag40
ag39
ag39
ag39
ag40
ag39
ag39
ag40
ag39
ag40
ag39
ag40
ag39
ag39
ag39
ag40
ag39
ag40
ag40
aa(lp669
g40
ag39
ag40
ag39
ag39
ag39
ag39
ag39
ag39
ag39
ag39
ag40
ag39
ag40
ag40
ag39
ag39
ag39
ag40
ag40
ag40
aa(lp670
g40
ag39
ag40
ag39
ag39
ag39
ag40
ag39
ag40
ag39
ag39
ag40
ag40
ag40
ag39
ag39
ag39
ag40
ag40
ag40
ag40
aa(lp671
g40
ag39
ag40
ag39
ag39
ag39
ag40
ag39
ag40
ag40
ag39
ag40
ag39
ag40
ag39
ag39
ag39
ag40
ag39
ag40
ag40
aa(lp672
g40
ag39
ag40
ag40
ag39
ag39
ag39
ag39
ag39
ag39
ag39
ag40
ag39
ag40
ag39
ag39
ag39
ag40
ag40
ag40
ag40
aa(lp673
g40
ag39
ag40
ag40
ag39
ag39
ag40
ag39
ag39
ag40
ag39
ag40
ag39
ag40
ag40
ag39
ag39
ag39
ag39
ag39
ag40
aa(lp674
g40
ag39
ag39
ag40
ag39
ag39
ag39
ag39
ag40
ag39
ag39
ag40
ag39
ag40
ag40
ag39
ag39
ag40
ag39
ag40
ag40
aa(lp675
g40
ag39
ag40
ag39
ag39
ag39
ag40
ag39
ag40
ag40
ag39
ag40
ag40
ag40
ag40
ag39
ag40
ag39
ag39
ag39
ag40
aa(lp676
g39
ag39
ag39
ag40
ag39
ag40
ag39
ag39
ag39
ag40
ag39
ag40
ag39
ag40
ag40
ag39
ag39
ag40
ag40
ag39
ag40
aa(lp677
g40
ag39
ag40
ag39
ag39
ag39
ag40
ag39
ag40
ag39
ag39
ag40
ag40
ag40
ag39
ag39
ag39
ag40
ag40
ag39
ag40
aasg23
I1
sbsg36
(lp678
g617
ag618
ag609
ag625
ag610
ag619
ag626
ag620
ag612
ag627
asg41
(lp679
g661
ag667
ag651
ag668
ag669
ag670
ag662
ag671
ag672
ag673
ag647
ag674
ag655
ag675
ag676
ag677
ag652
ag649
asg23
I1
sbsg36
(lp680
(lp681
g39
ag40
ag39
ag39
ag40
ag39
ag39
ag39
ag40
ag39
ag39
ag40
ag40
ag40
ag39
ag39
ag40
ag39
ag39
ag40
ag39
aa(lp682
g39
ag40
ag40
ag39
ag40
ag39
ag39
ag39
ag40
ag40
ag39
ag40
ag39
ag40
ag40
ag39
ag39
ag39
ag40
ag40
ag39
aa(lp683
g39
ag40
ag39
ag39
ag40
ag40
ag39
ag39
ag39
ag40
ag40
ag40
ag39
ag40
ag40
ag39
ag39
ag39
ag40
ag39
ag39
aa(lp684
g39
ag39
ag40
ag40
ag40
ag39
ag40
ag39
ag39
ag39
ag39
ag40
ag40
ag40
ag40
ag39
ag40
ag39
ag39
ag39
ag39
aa(lp685
g39
ag40
ag39
ag40
ag40
ag39
ag40
ag39
ag40
ag40
ag40
ag40
ag39
ag40
ag39
ag39
ag39
ag39
ag39
ag40
ag39
aa(lp686
g40
ag39
ag39
ag39
ag40
ag40
ag40
ag39
ag39
ag40
ag40
ag40
ag40
ag40
ag39
ag39
ag39
ag40
ag39
ag40
ag39
aa(lp687
g40
ag39
ag40
ag39
ag40
ag39
ag40
ag39
ag40
ag39
ag39
ag40
ag40
ag40
ag39
ag39
ag40
ag40
ag40
ag40
ag39
aasg41
(lp688
g617
ag661
ag618
ag667
ag651
ag668
ag609
ag625
ag669
ag670
ag610
ag662
ag619
ag626
ag671
ag672
ag673
ag647
ag620
ag674
ag655
ag675
ag612
ag676
ag677
ag652
ag627
ag649
asg23
I1
sbsg36
(lp689
(lp690
g40
ag39
ag40
ag39
ag40
ag40
ag40
ag39
ag40
ag39
ag39
ag40
ag40
ag40
ag39
ag40
ag39
ag40
ag40
ag39
ag39
aa(lp691
g39
ag40
ag40
ag40
ag40
ag39
ag39
ag39
ag40
ag40
ag39
ag40
ag40
ag40
ag39
ag40
ag40
ag40
ag40
ag39
ag39
aa(lp692
g40
ag40
ag40
ag39
ag40
ag40
ag39
ag39
ag40
ag40
ag39
ag40
ag40
ag40
ag39
ag40
ag39
ag40
ag40
ag39
ag39
aa(lp693
g40
ag39
ag40
ag39
ag39
ag40
ag40
ag39
ag40
ag39
ag40
ag40
ag40
ag40
ag39
ag40
ag40
ag39
ag40
ag39
ag39
aa(lp694
g39
ag40
ag39
ag39
ag40
ag40
ag40
ag39
ag40
ag39
ag39
ag40
ag40
ag40
ag40
ag40
ag40
ag39
ag40
ag40
ag39
aa(lp695
g40
ag39
ag40
ag40
ag39
ag39
ag39
ag39
ag40
ag39
ag40
ag40
ag39
ag40
ag40
ag40
ag39
ag40
ag39
ag39
ag39
aa(lp696
g40
ag40
ag40
ag40
ag39
ag40
ag40
ag39
ag40
ag40
ag40
ag40
ag39
ag40
ag40
ag40
ag39
ag39
ag39
ag39
ag39
aa(lp697
g40
ag39
ag39
ag40
ag40
ag40
ag39
ag39
ag39
ag40
ag40
ag40
ag40
ag40
ag39
ag40
ag39
ag39
ag39
ag40
ag39
aa(lp698
g39
ag39
ag40
ag40
ag39
ag40
ag39
ag39
ag39
ag39
ag40
ag40
ag39
ag40
ag39
ag40
ag40
ag40
ag40
ag39
ag39
aa(lp699
g39
ag39
ag40
ag39
ag39
ag39
ag40
ag39
ag39
ag40
ag40
ag40
ag40
ag40
ag40
ag40
ag39
ag39
ag39
ag39
ag39
aa(lp700
g40
ag39
ag40
ag39
ag39
ag40
ag39
ag39
ag40
ag40
ag39
ag40
ag40
ag40
ag40
ag40
ag39
ag40
ag39
ag39
ag39
aa(lp701
g40
ag39
ag39
ag39
ag39
ag40
ag39
ag39
ag39
ag39
ag39
ag40
ag39
ag40
ag39
ag40
ag39
ag40
ag40
ag40
ag39
aa(lp702
g40
ag40
ag39
ag40
ag39
ag39
ag40
ag39
ag40
ag40
ag40
ag40
ag39
ag40
ag39
ag40
ag39
ag39
ag40
ag40
ag39
aa(lp703
g39
ag39
ag39
ag39
ag40
ag39
ag40
ag39
ag40
ag40
ag39
ag40
ag40
ag40
ag40
ag40
ag39
ag39
ag39
ag40
ag39
aa(lp704
g39
ag39
ag40
ag40
ag39
ag39
ag40
ag39
ag40
ag39
ag39
ag40
ag39
ag40
ag39
ag40
ag40
ag39
ag39
ag40
ag39
aa(lp705
g39
ag40
ag39
ag39
ag40
ag39
ag40
ag39
ag39
ag40
ag40
ag40
ag39
ag40
ag40
ag40
ag39
ag40
ag39
ag39
ag39
aa(lp706
g39
ag40
ag39
ag40
ag39
ag40
ag40
ag39
ag39
ag40
ag40
ag40
ag40
ag40
ag40
ag40
ag40
ag40
ag39
ag39
ag39
aa(lp707
g39
ag39
ag39
ag40
ag40
ag39
ag39
ag39
ag39
ag40
ag40
ag40
ag39
ag40
ag39
ag40
ag39
ag39
ag39
ag39
ag39
aa(lp708
g40
ag39
ag39
ag39
ag39
ag40
ag39
ag39
ag39
ag39
ag40
ag40
ag40
ag40
ag40
ag40
ag40
ag40
ag40
ag39
ag39
aa(lp709
g39
ag40
ag39
ag40
ag40
ag40
ag39
ag39
ag39
ag39
ag39
ag40
ag39
ag40
ag39
ag40
ag39
ag40
ag40
ag40
ag39
aa(lp710
g39
ag40
ag40
ag40
ag40
ag39
ag40
ag39
ag39
ag39
ag39
ag40
ag39
ag40
ag40
ag40
ag39
ag39
ag40
ag40
ag39
aa(lp711
g39
ag39
ag39
ag40
ag40
ag39
ag40
ag39
ag40
ag39
ag40
ag40
ag39
ag40
ag39
ag40
ag40
ag39
ag39
ag40
ag39
aa(lp712
g39
ag39
ag40
ag40
ag40
ag40
ag40
ag39
ag40
ag39
ag40
ag40
ag39
ag40
ag40
ag40
ag39
ag39
ag40
ag40
ag39
aasg41
(lp713
g617
ag681
ag661
ag618
ag682
ag683
ag667
ag651
ag668
ag609
ag625
ag669
ag684
ag670
ag610
ag662
ag619
ag685
ag626
ag671
ag672
ag673
ag647
ag620
ag674
ag655
ag686
ag675
ag612
ag676
ag677
ag652
ag627
ag687
ag649
asg23
I0
sbsg25
(iid3_node
node
p714
(dp715
g2
g28
sg8
g586
sg4
(iid3_node
node
p716
(dp717
g2
g199
sg8
g714
sg4
(iid3_node
node
p718
(dp719
g2
g17
sg8
g716
sg4
(iid3_node
node
p720
(dp721
g23
I1
sg8
g718
sg24
I01
sbsg25
(iid3_node
node
p722
(dp723
g2
g20
sg8
g718
sg4
(iid3_node
node
p724
(dp725
g2
g98
sg8
g722
sg4
(iid3_node
node
p726
(dp727
g2
g192
sg8
g724
sg4
(iid3_node
node
p728
(dp729
g23
I1
sg8
g726
sg24
I01
sbsg25
(iid3_node
node
p730
(dp731
g23
I0
sg8
g726
sg24
I01
sbsg36
(lp732
(lp733
g40
ag40
ag39
ag39
ag39
ag39
ag40
ag39
ag40
ag40
ag39
ag39
ag40
ag40
ag40
ag40
ag39
ag39
ag39
ag40
ag40
aa(lp734
g39
ag39
ag39
ag39
ag40
ag39
ag40
ag39
ag40
ag40
ag39
ag39
ag39
ag40
ag40
ag40
ag39
ag39
ag39
ag40
ag40
aa(lp735
g39
ag40
ag40
ag39
ag40
ag39
ag40
ag39
ag40
ag40
ag39
ag39
ag39
ag40
ag40
ag40
ag39
ag39
ag39
ag40
ag40
aasg41
(lp736
(lp737
g39
ag40
ag39
ag40
ag40
ag40
ag40
ag39
ag40
ag39
ag39
ag39
ag40
ag40
ag40
ag40
ag39
ag39
ag39
ag40
ag39
aasg23
I1
sbsg25
(iid3_node
node
p738
(dp739
g23
I1
sg8
g724
sg24
I01
sbsg36
(lp740
g733
ag734
ag737
ag735
asg41
(lp741
(lp742
g40
ag39
ag40
ag40
ag39
ag39
ag40
ag39
ag40
ag39
ag39
ag39
ag40
ag40
ag40
ag40
ag39
ag39
ag39
ag39
ag40
aa(lp743
g39
ag39
ag40
ag39
ag40
ag40
ag40
ag39
ag40
ag39
ag39
ag39
ag40
ag40
ag39
ag40
ag39
ag39
ag40
ag39
ag40
aa(lp744
g39
ag39
ag39
ag40
ag40
ag40
ag40
ag39
ag40
ag40
ag39
ag39
ag39
ag40
ag40
ag40
ag39
ag39
ag39
ag39
ag40
aa(lp745
g39
ag40
ag39
ag39
ag39
ag40
ag40
ag39
ag40
ag40
ag39
ag39
ag39
ag40
ag40
ag40
ag40
ag40
ag39
ag39
ag40
aa(lp746
g40
ag40
ag39
ag40
ag39
ag40
ag40
ag39
ag40
ag39
ag39
ag39
ag40
ag40
ag39
ag40
ag40
ag40
ag40
ag39
ag40
aa(lp747
g39
ag40
ag40
ag39
ag40
ag40
ag40
ag39
ag40
ag40
ag39
ag39
ag39
ag40
ag40
ag40
ag39
ag39
ag40
ag39
ag40
aa(lp748
g39
ag39
ag39
ag40
ag40
ag39
ag40
ag39
ag40
ag40
ag39
ag39
ag40
ag40
ag39
ag40
ag39
ag39
ag40
ag39
ag40
aasg23
I1
sbsg25
(iid3_node
node
p749
(dp750
g23
I0
sg8
g722
sg24
I01
sbsg36
(lp751
g742
ag743
ag733
ag734
ag744
ag737
ag745
ag746
ag747
ag735
ag748
asg41
(lp752
(lp753
g40
ag39
ag39
ag39
ag40
ag40
ag39
ag39
ag40
ag40
ag39
ag39
ag39
ag40
ag40
ag40
ag39
ag40
ag39
ag39
ag39
aa(lp754
g39
ag40
ag39
ag39
ag40
ag39
ag39
ag39
ag40
ag39
ag39
ag39
ag40
ag40
ag39
ag40
ag39
ag39
ag40
ag40
ag39
aa(lp755
g39
ag39
ag40
ag39
ag39
ag39
ag39
ag39
ag40
ag39
ag39
ag39
ag39
ag40
ag40
ag40
ag39
ag40
ag39
ag39
ag39
aasg23
I1
sbsg36
(lp756
(lp757
g39
ag40
ag39
ag39
ag40
ag39
ag40
ag39
ag40
ag39
ag40
ag39
ag39
ag40
ag39
ag40
ag39
ag39
ag40
ag39
ag40
aa(lp758
g39
ag39
ag40
ag40
ag40
ag40
ag40
ag39
ag40
ag40
ag40
ag39
ag40
ag40
ag40
ag40
ag39
ag39
ag40
ag39
ag40
aa(lp759
g40
ag40
ag39
ag39
ag39
ag39
ag40
ag39
ag40
ag39
ag40
ag39
ag40
ag40
ag40
ag40
ag39
ag39
ag39
ag39
ag40
aa(lp760
g40
ag40
ag39
ag40
ag39
ag39
ag39
ag39
ag40
ag39
ag40
ag39
ag40
ag40
ag40
ag40
ag40
ag39
ag40
ag39
ag40
aa(lp761
g40
ag40
ag40
ag39
ag39
ag39
ag39
ag39
ag40
ag39
ag40
ag39
ag40
ag40
ag40
ag40
ag40
ag39
ag40
ag40
ag40
aa(lp762
g39
ag40
ag39
ag39
ag39
ag40
ag40
ag39
ag40
ag39
ag40
ag39
ag39
ag40
ag40
ag40
ag40
ag40
ag40
ag39
ag40
aa(lp763
g39
ag40
ag39
ag39
ag40
ag40
ag40
ag39
ag40
ag40
ag40
ag39
ag39
ag40
ag39
ag40
ag39
ag39
ag39
ag39
ag40
aa(lp764
g39
ag40
ag39
ag39
ag40
ag39
ag39
ag39
ag40
ag39
ag40
ag39
ag40
ag40
ag40
ag40
ag39
ag39
ag40
ag39
ag40
aa(lp765
g39
ag40
ag39
ag39
ag40
ag40
ag39
ag39
ag40
ag39
ag40
ag39
ag40
ag40
ag40
ag40
ag40
ag40
ag40
ag39
ag40
aa(lp766
g39
ag40
ag39
ag39
ag40
ag40
ag40
ag39
ag40
ag40
ag40
ag39
ag40
ag40
ag39
ag40
ag40
ag40
ag39
ag39
ag40
aa(lp767
g39
ag40
ag40
ag39
ag40
ag40
ag40
ag39
ag40
ag39
ag40
ag39
ag39
ag40
ag40
ag40
ag40
ag39
ag40
ag39
ag40
aa(lp768
g39
ag40
ag39
ag40
ag40
ag40
ag40
ag39
ag40
ag39
ag40
ag39
ag40
ag40
ag40
ag40
ag39
ag40
ag40
ag39
ag40
aa(lp769
g39
ag39
ag40
ag39
ag40
ag39
ag40
ag39
ag40
ag39
ag40
ag39
ag40
ag40
ag40
ag40
ag39
ag39
ag40
ag40
ag40
aa(lp770
g40
ag39
ag39
ag40
ag39
ag39
ag40
ag39
ag40
ag39
ag40
ag39
ag39
ag40
ag40
ag40
ag39
ag39
ag39
ag39
ag40
aa(lp771
g40
ag39
ag39
ag40
ag39
ag40
ag39
ag39
ag40
ag39
ag40
ag39
ag40
ag40
ag40
ag40
ag39
ag40
ag40
ag39
ag40
aasg41
(lp772
g742
ag753
ag743
ag754
ag733
ag734
ag744
ag737
ag745
ag746
ag747
ag735
ag748
ag755
asg23
I1
sbsg25
(iid3_node
node
p773
(dp774
g2
g146
sg8
g716
sg4
(iid3_node
node
p775
(dp776
g23
I0
sg8
g773
sg24
I01
sbsg25
(iid3_node
node
p777
(dp778
g2
g445
sg8
g773
sg4
(iid3_node
node
p779
(dp780
g2
g98
sg8
g777
sg4
(iid3_node
node
p781
(dp782
g2
g408
sg8
g779
sg4
(iid3_node
node
p783
(dp784
g23
I1
sg8
g781
sg24
I01
sbsg25
(iid3_node
node
p785
(dp786
g23
I0
sg8
g781
sg24
I01
sbsg36
(lp787
(lp788
g39
ag39
ag40
ag40
ag40
ag39
ag40
ag39
ag39
ag40
ag39
ag39
ag39
ag40
ag40
ag40
ag40
ag39
ag40
ag40
ag40
aa(lp789
g39
ag39
ag39
ag39
ag40
ag39
ag39
ag39
ag39
ag39
ag40
ag39
ag39
ag40
ag40
ag40
ag39
ag39
ag39
ag40
ag40
aa(lp790
g39
ag39
ag40
ag40
ag40
ag39
ag39
ag39
ag39
ag39
ag40
ag39
ag39
ag40
ag40
ag40
ag39
ag39
ag39
ag40
ag40
aasg41
(lp791
(lp792
g39
ag39
ag40
ag40
ag39
ag39
ag39
ag39
ag39
ag39
ag39
ag39
ag39
ag40
ag40
ag40
ag39
ag39
ag39
ag40
ag39
aasg23
I1
sbsg25
(iid3_node
node
p793
(dp794
g23
I0
sg8
g779
sg24
I01
sbsg36
(lp795
g788
ag789
ag790
ag792
asg41
(lp796
(lp797
g40
ag40
ag39
ag40
ag39
ag39
ag40
ag39
ag39
ag40
ag40
ag39
ag39
ag40
ag40
ag40
ag39
ag40
ag39
ag39
ag39
aa(lp798
g40
ag39
ag39
ag39
ag40
ag39
ag40
ag39
ag39
ag39
ag40
ag39
ag39
ag40
ag40
ag40
ag40
ag39
ag40
ag39
ag39
aasg23
I1
sbsg25
(iid3_node
node
p799
(dp800
g23
I1
sg8
g777
sg24
I01
sbsg36
(lp801
g797
ag788
ag789
ag798
ag790
ag792
asg41
(lp802
(lp803
g39
ag39
ag40
ag39
ag40
ag40
ag39
ag39
ag39
ag40
ag40
ag39
ag39
ag40
ag39
ag40
ag39
ag40
ag39
ag39
ag40
aa(lp804
g39
ag39
ag39
ag40
ag40
ag40
ag40
ag39
ag39
ag40
ag40
ag39
ag39
ag40
ag39
ag40
ag39
ag40
ag39
ag39
ag40
aa(lp805
g39
ag39
ag40
ag40
ag40
ag39
ag40
ag39
ag39
ag40
ag39
ag39
ag39
ag40
ag39
ag40
ag40
ag39
ag40
ag40
ag40
aa(lp806
g40
ag39
ag40
ag40
ag39
ag40
ag40
ag39
ag39
ag40
ag39
ag39
ag39
ag40
ag39
ag40
ag39
ag40
ag39
ag39
ag40
aasg23
I1
sbsg36
(lp807
(lp808
g40
ag39
ag39
ag39
ag40
ag39
ag39
ag39
ag39
ag39
ag40
ag39
ag40
ag40
ag40
ag40
ag39
ag40
ag39
ag39
ag39
aa(lp809
g39
ag39
ag39
ag39
ag40
ag40
ag39
ag39
ag39
ag40
ag39
ag39
ag40
ag40
ag40
ag40
ag39
ag39
ag39
ag39
ag39
aa(lp810
g39
ag40
ag39
ag39
ag40
ag39
ag40
ag39
ag39
ag40
ag39
ag39
ag40
ag40
ag40
ag40
ag39
ag39
ag39
ag39
ag39
aa(lp811
g40
ag39
ag39
ag40
ag39
ag39
ag39
ag39
ag39
ag39
ag39
ag39
ag40
ag40
ag39
ag40
ag39
ag39
ag39
ag39
ag39
aa(lp812
g40
ag40
ag39
ag39
ag39
ag39
ag39
ag39
ag39
ag39
ag39
ag39
ag40
ag40
ag39
ag40
ag40
ag39
ag39
ag39
ag39
aa(lp813
g39
ag40
ag40
ag39
ag39
ag39
ag40
ag39
ag39
ag40
ag39
ag39
ag40
ag40
ag39
ag40
ag40
ag39
ag40
ag40
ag39
aasg41
(lp814
g797
ag803
ag788
ag789
ag798
ag804
ag805
ag790
ag792
ag806
asg23
I0
sbsg36
(lp815
g757
ag758
ag742
ag753
ag743
ag759
ag754
ag760
ag733
ag734
ag761
ag762
ag744
ag737
ag763
ag764
ag765
ag766
ag767
ag768
ag769
ag770
ag745
ag746
ag747
ag735
ag748
ag771
ag755
asg41
(lp816
g808
ag797
ag809
ag810
ag803
ag788
ag789
ag798
ag804
ag811
ag805
ag790
ag812
ag792
ag813
ag806
asg23
I1
sbsg25
(iid3_node
node
p817
(dp818
g2
g408
sg8
g714
sg4
(iid3_node
node
p819
(dp820
g23
I0
sg8
g817
sg24
I01
sbsg25
(iid3_node
node
p821
(dp822
g2
g20
sg8
g817
sg4
(iid3_node
node
p823
(dp824
g23
I1
sg8
g821
sg24
I01
sbsg25
(iid3_node
node
p825
(dp826
g2
g14
sg8
g821
sg4
(iid3_node
node
p827
(dp828
g2
g445
sg8
g825
sg4
(iid3_node
node
p829
(dp830
g23
I1
sg8
g827
sg24
I01
sbsg25
(iid3_node
node
p831
(dp832
g23
I0
sg8
g827
sg24
I01
sbsg36
(lp833
(lp834
g40
ag39
ag39
ag39
ag39
ag39
ag39
ag39
ag40
ag40
ag40
ag39
ag39
ag40
ag40
ag39
ag39
ag40
ag39
ag39
ag40
aasg41
(lp835
(lp836
g39
ag39
ag40
ag39
ag39
ag39
ag39
ag39
ag40
ag39
ag40
ag39
ag40
ag40
ag39
ag39
ag39
ag40
ag39
ag39
ag39
aasg23
I1
sbsg25
(iid3_node
node
p837
(dp838
g23
I0
sg8
g825
sg24
I01
sbsg36
(lp839
g834
ag836
asg41
(lp840
(lp841
g39
ag40
ag40
ag40
ag39
ag39
ag39
ag39
ag39
ag39
ag40
ag39
ag40
ag40
ag40
ag39
ag39
ag39
ag40
ag39
ag39
aa(lp842
g40
ag40
ag40
ag39
ag39
ag40
ag39
ag39
ag40
ag40
ag39
ag39
ag40
ag40
ag40
ag39
ag40
ag39
ag39
ag40
ag39
aa(lp843
g39
ag39
ag39
ag39
ag39
ag39
ag39
ag39
ag40
ag39
ag40
ag39
ag39
ag40
ag39
ag39
ag39
ag39
ag40
ag39
ag39
aasg23
I0
sbsg36
(lp844
(lp845
g40
ag39
ag40
ag39
ag39
ag40
ag40
ag39
ag39
ag40
ag39
ag39
ag39
ag40
ag39
ag39
ag39
ag40
ag39
ag39
ag40
aa(lp846
g40
ag39
ag39
ag40
ag39
ag39
ag40
ag39
ag39
ag39
ag40
ag39
ag39
ag40
ag40
ag39
ag39
ag40
ag39
ag39
ag40
aa(lp847
g40
ag39
ag40
ag39
ag39
ag39
ag40
ag39
ag39
ag39
ag39
ag39
ag39
ag40
ag39
ag39
ag39
ag40
ag40
ag39
ag40
aa(lp848
g40
ag40
ag40
ag39
ag39
ag39
ag40
ag39
ag40
ag39
ag39
ag39
ag39
ag40
ag40
ag39
ag40
ag39
ag40
ag40
ag40
aa(lp849
g40
ag39
ag39
ag40
ag39
ag39
ag40
ag39
ag39
ag40
ag39
ag39
ag39
ag40
ag40
ag39
ag40
ag40
ag39
ag39
ag40
aa(lp850
g40
ag39
ag39
ag39
ag39
ag40
ag40
ag39
ag39
ag39
ag40
ag39
ag39
ag40
ag40
ag39
ag39
ag40
ag40
ag39
ag40
aa(lp851
g40
ag40
ag39
ag40
ag39
ag39
ag40
ag39
ag40
ag39
ag39
ag39
ag40
ag40
ag39
ag39
ag40
ag40
ag40
ag39
ag40
aa(lp852
g40
ag39
ag39
ag39
ag39
ag39
ag40
ag39
ag39
ag40
ag39
ag39
ag39
ag40
ag39
ag39
ag40
ag39
ag39
ag39
ag40
aasg41
(lp853
g841
ag834
ag836
ag842
ag843
asg23
I1
sbsg36
(lp854
(lp855
g39
ag39
ag39
ag40
ag40
ag40
ag40
ag39
ag39
ag39
ag40
ag39
ag39
ag40
ag39
ag39
ag39
ag40
ag39
ag40
ag39
aa(lp856
g39
ag40
ag39
ag40
ag40
ag40
ag39
ag39
ag39
ag39
ag40
ag39
ag40
ag40
ag39
ag39
ag40
ag40
ag40
ag39
ag39
aa(lp857
g40
ag40
ag40
ag39
ag40
ag40
ag40
ag39
ag39
ag40
ag40
ag39
ag39
ag40
ag39
ag39
ag39
ag40
ag39
ag39
ag39
aa(lp858
g40
ag40
ag40
ag40
ag40
ag39
ag40
ag39
ag40
ag39
ag39
ag39
ag39
ag40
ag40
ag39
ag39
ag39
ag40
ag39
ag39
aa(lp859
g39
ag39
ag39
ag39
ag40
ag40
ag40
ag39
ag40
ag39
ag39
ag39
ag40
ag40
ag40
ag39
ag39
ag40
ag40
ag39
ag39
aa(lp860
g39
ag40
ag39
ag40
ag40
ag39
ag40
ag39
ag39
ag40
ag39
ag39
ag39
ag40
ag39
ag39
ag40
ag40
ag40
ag39
ag39
aa(lp861
g40
ag39
ag40
ag40
ag40
ag39
ag40
ag39
ag40
ag40
ag40
ag39
ag40
ag40
ag40
ag39
ag39
ag39
ag39
ag39
ag39
aa(lp862
g39
ag40
ag39
ag39
ag40
ag39
ag40
ag39
ag40
ag39
ag40
ag39
ag40
ag40
ag39
ag39
ag39
ag39
ag40
ag40
ag39
aa(lp863
g40
ag40
ag39
ag39
ag40
ag39
ag40
ag39
ag39
ag40
ag39
ag39
ag40
ag40
ag39
ag39
ag39
ag39
ag40
ag39
ag39
aa(lp864
g40
ag39
ag40
ag39
ag40
ag39
ag40
ag39
ag39
ag40
ag40
ag39
ag39
ag40
ag40
ag39
ag39
ag39
ag39
ag40
ag39
aa(lp865
g39
ag39
ag39
ag40
ag40
ag39
ag40
ag39
ag40
ag39
ag39
ag39
ag39
ag40
ag39
ag39
ag40
ag40
ag40
ag39
ag39
aasg41
(lp866
g845
ag846
ag847
ag841
ag834
ag848
ag836
ag842
ag849
ag850
ag851
ag852
ag843
asg23
I0
sbsg36
(lp867
g757
ag758
ag742
ag753
ag808
ag797
ag809
ag743
ag759
ag754
ag760
ag810
ag803
ag733
ag734
ag788
ag761
ag789
ag798
ag762
ag744
ag737
ag763
ag764
ag765
ag804
ag766
ag767
ag768
ag769
ag811
ag770
ag805
ag790
ag812
ag792
ag745
ag746
ag747
ag735
ag813
ag748
ag806
ag771
ag755
asg41
(lp868
g855
ag845
ag846
ag847
ag841
ag834
ag848
ag836
ag856
ag857
ag858
ag842
ag849
ag850
ag859
ag860
ag861
ag862
ag851
ag863
ag864
ag852
ag865
ag843
asg23
I1
sbsg36
(lp869
g690
ag617
ag691
ag681
ag692
ag661
ag693
ag694
ag695
ag696
ag618
ag697
ag682
ag698
ag683
ag667
ag699
ag700
ag651
ag668
ag701
ag609
ag625
ag669
ag684
ag670
ag610
ag662
ag702
ag619
ag685
ag626
ag703
ag671
ag672
ag673
ag704
ag647
ag705
ag620
ag706
ag674
ag707
ag708
ag655
ag686
ag675
ag612
ag676
ag709
ag710
ag677
ag652
ag711
ag712
ag627
ag687
ag649
asg41
(lp870
g757
ag758
ag855
ag845
ag742
ag753
ag846
ag808
ag797
ag809
ag743
ag847
ag759
ag841
ag834
ag754
ag760
ag810
ag803
ag848
ag836
ag733
ag734
ag788
ag761
ag789
ag798
ag762
ag744
ag737
ag763
ag764
ag856
ag765
ag857
ag858
ag804
ag766
ag842
ag767
ag768
ag849
ag850
ag859
ag769
ag860
ag861
ag811
ag770
ag805
ag862
ag790
ag812
ag851
ag863
ag792
ag745
ag746
ag747
ag735
ag813
ag864
ag748
ag806
ag852
ag771
ag865
ag755
ag843
asg23
I0
sbsg36
(lp871
g390
ag258
ag73
ag503
ag238
ag397
ag559
ag205
ag90
ag206
ag164
ag570
ag355
ag356
ag43
ag64
ag469
ag571
ag267
ag543
ag430
ag65
ag357
ag268
ag560
ag512
ag513
ag313
ag130
ag91
ag470
ag463
ag572
ag358
ag507
ag561
ag252
ag514
ag471
ag314
ag414
ag540
ag74
ag179
ag515
ag500
ag158
ag38
ag466
ag472
ag211
ag165
ag166
ag175
ag415
ag423
ag573
ag340
ag56
ag183
ag516
ag517
ag359
ag417
ag341
ag269
ag270
ag239
ag431
ag92
ag467
ag518
ag121
ag88
ag306
ag66
ag271
ag432
ag108
ag119
ag464
ag67
ag398
ag212
ag388
ag347
ag519
ag433
ag315
ag520
ag555
ag256
ag424
ag360
ag57
ag418
ag184
ag159
ag75
ag122
ag333
ag434
ag419
ag307
ag399
ag123
ag272
ag93
ag361
ag362
ag185
ag273
ag316
ag363
ag207
ag167
ag342
ag253
ag131
ag491
ag364
ag186
ag274
ag317
ag209
ag562
ag501
ag521
ag233
ag574
ag386
ag365
ag94
ag557
ag522
ag575
ag435
ag523
ag420
ag187
ag524
ag366
ag259
ag176
ag367
ag576
ag318
ag304
ag368
ag275
ag132
ag59
ag319
ag276
ag110
ag111
ag213
ag489
ag277
ag308
ag95
ag76
ag473
ag156
ag44
ag525
ag254
ag68
ag133
ag69
ag577
ag278
ag541
ag391
ag369
ag177
ag474
ag320
ag436
ag188
ag335
ag260
ag348
ag279
ag437
ag261
ag526
ag231
ag370
ag438
ag421
ag527
ag578
ag492
ag579
ag262
asg41
(lp872
g690
ag617
ag757
ag758
ag855
ag691
ag845
ag742
ag753
ag846
ag681
ag692
ag808
ag661
ag693
ag694
ag695
ag696
ag618
ag697
ag797
ag682
ag809
ag698
ag743
ag683
ag847
ag667
ag699
ag759
ag841
ag834
ag754
ag760
ag700
ag651
ag810
ag668
ag701
ag803
ag848
ag609
ag836
ag733
ag625
ag669
ag734
ag788
ag684
ag670
ag610
ag761
ag662
ag702
ag619
ag685
ag789
ag798
ag762
ag626
ag744
ag737
ag763
ag764
ag856
ag765
ag857
ag703
ag858
ag804
ag766
ag671
ag842
ag767
ag768
ag849
ag850
ag859
ag769
ag860
ag861
ag811
ag770
ag672
ag673
ag704
ag805
ag862
ag790
ag812
ag647
ag705
ag620
ag851
ag706
ag674
ag863
ag707
ag792
ag745
ag708
ag746
ag655
ag747
ag735
ag813
ag686
ag675
ag864
ag748
ag612
ag676
ag806
ag709
ag852
ag771
ag865
ag710
ag755
ag677
ag652
ag711
ag712
ag627
ag687
ag843
ag649
asg23
I1
sbsg25
(iid3_node
node
p873
(dp874
g2
g31
sg8
g0
sg4
(iid3_node
node
p875
(dp876
g2
g323
sg8
g873
sg4
(iid3_node
node
p877
(dp878
g2
g7
sg8
g875
sg4
(iid3_node
node
p879
(dp880
g2
g192
sg8
g877
sg4
(iid3_node
node
p881
(dp882
g23
I0
sg8
g879
sg24
I01
sbsg25
(iid3_node
node
p883
(dp884
g2
g47
sg8
g879
sg4
(iid3_node
node
p885
(dp886
g2
g445
sg8
g883
sg4
(iid3_node
node
p887
(dp888
g2
g14
sg8
g885
sg4
(iid3_node
node
p889
(dp890
g23
I0
sg8
g887
sg24
I01
sbsg25
(iid3_node
node
p891
(dp892
g2
g82
sg8
g887
sg4
(iid3_node
node
p893
(dp894
g2
g146
sg8
g891
sg4
(iid3_node
node
p895
(dp896
g23
I1
sg8
g893
sg24
I01
sbsg25
(iid3_node
node
p897
(dp898
g23
I0
sg8
g893
sg24
I01
sbsg36
(lp899
(lp900
g40
ag39
ag40
ag40
ag40
ag40
ag39
ag40
ag39
ag39
ag40
ag40
ag40
ag39
ag40
ag40
ag39
ag39
ag40
ag39
ag40
aa(lp901
g40
ag39
ag40
ag39
ag40
ag40
ag40
ag40
ag40
ag39
ag39
ag40
ag40
ag39
ag40
ag40
ag39
ag39
ag40
ag39
ag40
aasg41
(lp902
(lp903
g40
ag39
ag40
ag40
ag39
ag40
ag40
ag40
ag40
ag39
ag39
ag40
ag39
ag39
ag40
ag40
ag40
ag39
ag39
ag40
ag39
aa(lp904
g40
ag39
ag40
ag39
ag39
ag40
ag39
ag40
ag39
ag39
ag39
ag40
ag39
ag39
ag40
ag40
ag39
ag39
ag39
ag40
ag39
aa(lp905
g40
ag40
ag40
ag39
ag40
ag40
ag39
ag40
ag40
ag39
ag40
ag40
ag39
ag39
ag40
ag39
ag39
ag39
ag40
ag39
ag39
aasg23
I0
sbsg25
(iid3_node
node
p906
(dp907
g23
I1
sg8
g891
sg24
I01
sbsg36
(lp908
g903
ag900
ag904
ag905
ag901
asg41
(lp909
(lp910
g40
ag39
ag40
ag39
ag39
ag39
ag39
ag40
ag39
ag39
ag39
ag40
ag40
ag39
ag40
ag39
ag40
ag39
ag40
ag40
ag40
aa(lp911
g40
ag39
ag40
ag39
ag39
ag39
ag39
ag40
ag39
ag39
ag39
ag40
ag39
ag39
ag40
ag40
ag40
ag39
ag39
ag39
ag40
aa(lp912
g40
ag39
ag40
ag40
ag39
ag39
ag39
ag40
ag40
ag39
ag40
ag40
ag39
ag39
ag40
ag40
ag39
ag39
ag39
ag40
ag40
aa(lp913
g40
ag39
ag40
ag40
ag39
ag39
ag39
ag40
ag40
ag39
ag40
ag40
ag39
ag39
ag40
ag40
ag40
ag39
ag40
ag40
ag40
aasg23
I1
sbsg36
(lp914
(lp915
g40
ag39
ag40
ag40
ag40
ag39
ag40
ag40
ag39
ag39
ag40
ag40
ag40
ag39
ag40
ag39
ag40
ag40
ag40
ag40
ag39
aasg41
(lp916
g910
ag911
ag903
ag900
ag904
ag905
ag912
ag901
ag913
asg23
I1
sbsg25
(iid3_node
node
p917
(dp918
g23
I1
sg8
g885
sg24
I01
sbsg36
(lp919
g910
ag911
ag915
ag903
ag900
ag904
ag905
ag912
ag901
ag913
asg41
(lp920
(lp921
g40
ag39
ag40
ag40
ag40
ag39
ag40
ag40
ag40
ag39
ag39
ag40
ag39
ag39
ag39
ag40
ag39
ag39
ag39
ag39
ag40
aa(lp922
g40
ag39
ag40
ag39
ag39
ag39
ag39
ag40
ag40
ag39
ag39
ag40
ag39
ag39
ag39
ag39
ag40
ag39
ag39
ag39
ag40
aa(lp923
g40
ag39
ag40
ag39
ag40
ag40
ag39
ag40
ag39
ag39
ag40
ag40
ag40
ag39
ag39
ag39
ag39
ag39
ag39
ag39
ag40
aa(lp924
g40
ag39
ag40
ag40
ag40
ag40
ag40
ag40
ag40
ag39
ag40
ag40
ag40
ag39
ag39
ag39
ag39
ag40
ag39
ag40
ag40
aa(lp925
g40
ag39
ag40
ag40
ag40
ag40
ag40
ag40
ag40
ag39
ag39
ag40
ag40
ag39
ag39
ag39
ag39
ag40
ag39
ag40
ag40
aa(lp926
g40
ag39
ag40
ag39
ag39
ag39
ag39
ag40
ag40
ag39
ag39
ag40
ag39
ag39
ag39
ag39
ag40
ag40
ag39
ag39
ag40
aa(lp927
g40
ag39
ag40
ag40
ag39
ag39
ag39
ag40
ag39
ag39
ag39
ag40
ag39
ag39
ag39
ag39
ag39
ag39
ag39
ag39
ag40
aa(lp928
g40
ag39
ag40
ag40
ag40
ag39
ag39
ag40
ag40
ag39
ag40
ag40
ag39
ag39
ag39
ag40
ag39
ag39
ag40
ag40
ag40
aa(lp929
g40
ag39
ag40
ag40
ag40
ag40
ag39
ag40
ag39
ag39
ag39
ag40
ag40
ag39
ag39
ag39
ag39
ag40
ag39
ag40
ag40
aa(lp930
g40
ag39
ag40
ag39
ag40
ag39
ag39
ag40
ag40
ag39
ag39
ag40
ag40
ag39
ag39
ag40
ag40
ag39
ag39
ag40
ag40
aa(lp931
g40
ag39
ag40
ag39
ag39
ag39
ag40
ag40
ag40
ag39
ag39
ag40
ag39
ag39
ag39
ag39
ag40
ag40
ag39
ag40
ag40
aa(lp932
g40
ag39
ag40
ag39
ag40
ag39
ag39
ag40
ag39
ag39
ag40
ag40
ag39
ag39
ag39
ag40
ag40
ag39
ag39
ag40
ag40
aa(lp933
g40
ag39
ag40
ag39
ag40
ag40
ag39
ag40
ag40
ag39
ag40
ag40
ag39
ag39
ag39
ag39
ag39
ag39
ag39
ag40
ag40
aa(lp934
g40
ag39
ag40
ag40
ag39
ag40
ag40
ag40
ag39
ag39
ag39
ag40
ag40
ag39
ag39
ag39
ag39
ag40
ag39
ag40
ag40
aa(lp935
g40
ag39
ag40
ag40
ag39
ag39
ag40
ag40
ag40
ag39
ag39
ag40
ag40
ag39
ag39
ag39
ag39
ag39
ag39
ag39
ag40
aasg23
I1
sbsg25
(iid3_node
node
p936
(dp937
g23
I0
sg8
g883
sg24
I01
sbsg36
(lp938
g921
ag922
ag910
ag923
ag924
ag925
ag911
ag926
ag915
ag903
ag900
ag927
ag928
ag929
ag930
ag904
ag931
ag932
ag905
ag933
ag934
ag912
ag901
ag913
ag935
asg41
(lp939
(lp940
g40
ag40
ag39
ag39
ag40
ag40
ag39
ag40
ag40
ag39
ag39
ag40
ag39
ag39
ag40
ag40
ag40
ag40
ag40
ag40
ag39
aa(lp941
g40
ag39
ag39
ag40
ag40
ag39
ag40
ag40
ag40
ag39
ag39
ag40
ag39
ag39
ag40
ag40
ag40
ag40
ag40
ag40
ag39
aa(lp942
g40
ag40
ag39
ag40
ag39
ag39
ag39
ag40
ag39
ag39
ag40
ag40
ag39
ag39
ag39
ag40
ag40
ag39
ag40
ag39
ag39
aasg23
I1
sbsg36
(lp943
(lp944
g40
ag40
ag39
ag39
ag39
ag40
ag40
ag40
ag40
ag40
ag40
ag40
ag40
ag39
ag40
ag39
ag40
ag40
ag40
ag40
ag39
aa(lp945
g40
ag39
ag40
ag39
ag39
ag39
ag40
ag40
ag40
ag40
ag40
ag40
ag39
ag39
ag40
ag40
ag40
ag40
ag40
ag39
ag39
aa(lp946
g40
ag40
ag40
ag40
ag40
ag39
ag40
ag40
ag40
ag40
ag40
ag40
ag40
ag39
ag40
ag40
ag40
ag39
ag39
ag39
ag39
aa(lp947
g40
ag40
ag39
ag39
ag39
ag39
ag39
ag40
ag40
ag40
ag40
ag40
ag39
ag39
ag40
ag39
ag40
ag39
ag39
ag39
ag39
aa(lp948
g40
ag39
ag40
ag40
ag39
ag39
ag40
ag40
ag40
ag40
ag40
ag40
ag40
ag39
ag39
ag40
ag40
ag40
ag39
ag40
ag39
aa(lp949
g40
ag39
ag40
ag39
ag40
ag39
ag40
ag40
ag39
ag40
ag39
ag40
ag39
ag39
ag40
ag40
ag39
ag40
ag40
ag40
ag39
aasg41
(lp950
g921
ag922
ag940
ag910
ag923
ag924
ag925
ag911
ag926
ag915
ag903
ag900
ag927
ag928
ag929
ag930
ag904
ag931
ag932
ag905
ag933
ag941
ag934
ag912
ag942
ag901
ag913
ag935
asg23
I1
sbsg25
(iid3_node
node
p951
(dp952
g23
I0
sg8
g877
sg24
I01
sbsg36
(lp953
g921
ag922
ag940
ag910
ag944
ag923
ag945
ag924
ag925
ag911
ag926
ag915
ag903
ag900
ag927
ag928
ag946
ag929
ag930
ag947
ag904
ag931
ag932
ag905
ag948
ag933
ag941
ag934
ag912
ag942
ag901
ag913
ag935
ag949
asg41
(lp954
(lp955
g40
ag40
ag39
ag40
ag39
ag40
ag40
ag39
ag40
ag40
ag39
ag40
ag40
ag39
ag40
ag40
ag39
ag39
ag39
ag39
ag39
aa(lp956
g40
ag40
ag39
ag40
ag40
ag40
ag39
ag39
ag40
ag39
ag39
ag40
ag40
ag39
ag40
ag40
ag39
ag40
ag40
ag39
ag39
aa(lp957
g40
ag40
ag39
ag40
ag39
ag40
ag39
ag39
ag39
ag40
ag40
ag40
ag39
ag39
ag39
ag40
ag39
ag40
ag39
ag39
ag39
aa(lp958
g40
ag40
ag39
ag39
ag39
ag40
ag40
ag39
ag40
ag39
ag40
ag40
ag39
ag39
ag40
ag40
ag40
ag40
ag40
ag40
ag39
aa(lp959
g40
ag40
ag40
ag40
ag40
ag40
ag39
ag39
ag39
ag40
ag40
ag40
ag39
ag39
ag40
ag39
ag40
ag40
ag39
ag40
ag39
aa(lp960
g40
ag40
ag40
ag40
ag40
ag40
ag40
ag39
ag40
ag39
ag39
ag40
ag39
ag39
ag40
ag40
ag40
ag39
ag39
ag39
ag39
aa(lp961
g40
ag39
ag39
ag40
ag40
ag39
ag39
ag39
ag40
ag40
ag39
ag40
ag40
ag39
ag39
ag39
ag39
ag40
ag40
ag39
ag39
aa(lp962
g40
ag40
ag40
ag39
ag40
ag40
ag40
ag39
ag40
ag40
ag39
ag40
ag39
ag39
ag40
ag39
ag40
ag39
ag40
ag39
ag39
aa(lp963
g40
ag39
ag39
ag40
ag39
ag39
ag40
ag39
ag40
ag40
ag40
ag40
ag40
ag39
ag39
ag39
ag39
ag39
ag39
ag39
ag39
aa(lp964
g40
ag39
ag39
ag40
ag40
ag39
ag40
ag39
ag40
ag39
ag39
ag40
ag40
ag39
ag40
ag39
ag39
ag40
ag39
ag40
ag39
aa(lp965
g40
ag40
ag40
ag40
ag40
ag39
ag39
ag39
ag39
ag39
ag40
ag40
ag40
ag39
ag39
ag40
ag39
ag40
ag40
ag40
ag39
aa(lp966
g40
ag39
ag39
ag40
ag40
ag40
ag39
ag39
ag40
ag40
ag39
ag40
ag39
ag39
ag40
ag40
ag39
ag39
ag39
ag40
ag39
aa(lp967
g40
ag40
ag39
ag39
ag40
ag40
ag39
ag39
ag39
ag40
ag39
ag40
ag40
ag39
ag39
ag39
ag40
ag39
ag40
ag40
ag39
aa(lp968
g40
ag39
ag40
ag39
ag40
ag40
ag40
ag39
ag40
ag39
ag40
ag40
ag40
ag39
ag40
ag40
ag39
ag40
ag39
ag39
ag39
aa(lp969
g40
ag39
ag39
ag40
ag40
ag39
ag39
ag39
ag40
ag39
ag39
ag40
ag39
ag39
ag39
ag40
ag39
ag40
ag40
ag40
ag39
aa(lp970
g40
ag40
ag40
ag40
ag40
ag39
ag40
ag39
ag39
ag40
ag40
ag40
ag40
ag39
ag40
ag40
ag40
ag39
ag40
ag40
ag39
aa(lp971
g40
ag39
ag40
ag39
ag39
ag39
ag40
ag39
ag40
ag39
ag39
ag40
ag39
ag39
ag39
ag39
ag40
ag40
ag39
ag39
ag39
aa(lp972
g40
ag39
ag40
ag40
ag40
ag39
ag39
ag39
ag40
ag39
ag40
ag40
ag40
ag39
ag39
ag40
ag39
ag39
ag40
ag40
ag39
aa(lp973
g40
ag39
ag40
ag39
ag39
ag39
ag40
ag39
ag39
ag39
ag40
ag40
ag40
ag39
ag40
ag39
ag39
ag40
ag40
ag40
ag39
aasg23
I0
sbsg25
(iid3_node
node
p974
(dp975
g2
g408
sg8
g875
sg4
(iid3_node
node
p976
(dp977
g2
g14
sg8
g974
sg4
(iid3_node
node
p978
(dp979
g2
g50
sg8
g976
sg4
(iid3_node
node
p980
(dp981
g2
g7
sg8
g978
sg4
(iid3_node
node
p982
(dp983
g2
g82
sg8
g980
sg4
(iid3_node
node
p984
(dp985
g23
I1
sg8
g982
sg24
I01
sbsg25
(iid3_node
node
p986
(dp987
g2
g28
sg8
g982
sg4
(iid3_node
node
p988
(dp989
g23
I0
sg8
g986
sg24
I01
sbsg25
(iid3_node
node
p990
(dp991
g2
g199
sg8
g986
sg4
(iid3_node
node
p992
(dp993
g23
I1
sg8
g990
sg24
I01
sbsg25
(iid3_node
node
p994
(dp995
g2
g98
sg8
g990
sg4
(iid3_node
node
p996
(dp997
g23
I0
sg8
g994
sg24
I01
sbsg25
(iid3_node
node
p998
(dp999
g23
I1
sg8
g994
sg24
I01
sbsg36
(lp1000
(lp1001
g39
ag39
ag39
ag40
ag40
ag39
ag39
ag40
ag39
ag40
ag39
ag40
ag40
ag39
ag39
ag39
ag40
ag40
ag39
ag40
ag39
aasg41
(lp1002
(lp1003
g39
ag39
ag40
ag39
ag40
ag39
ag39
ag40
ag39
ag39
ag39
ag40
ag39
ag39
ag39
ag39
ag40
ag40
ag39
ag39
ag40
aasg23
I1
sbsg36
(lp1004
(lp1005
g39
ag39
ag39
ag40
ag40
ag39
ag39
ag40
ag40
ag39
ag40
ag40
ag40
ag39
ag39
ag39
ag40
ag40
ag40
ag40
ag40
aa(lp1006
g39
ag40
ag39
ag40
ag40
ag39
ag39
ag40
ag40
ag40
ag40
ag40
ag40
ag39
ag40
ag39
ag40
ag40
ag39
ag39
ag40
aa(lp1007
g39
ag40
ag39
ag40
ag40
ag39
ag40
ag40
ag40
ag40
ag40
ag40
ag40
ag39
ag40
ag39
ag40
ag40
ag39
ag40
ag40
aa(lp1008
g39
ag39
ag40
ag40
ag40
ag39
ag40
ag40
ag40
ag39
ag39
ag40
ag40
ag39
ag39
ag39
ag40
ag40
ag40
ag39
ag40
aasg41
(lp1009
g1003
ag1001
asg23
I1
sbsg36
(lp1010
(lp1011
g39
ag40
ag39
ag40
ag40
ag39
ag40
ag40
ag39
ag39
ag39
ag40
ag40
ag39
ag40
ag40
ag40
ag40
ag39
ag39
ag39
aa(lp1012
g39
ag40
ag40
ag39
ag40
ag39
ag40
ag40
ag40
ag40
ag40
ag40
ag39
ag39
ag39
ag40
ag40
ag40
ag40
ag39
ag39
aa(lp1013
g39
ag39
ag39
ag40
ag40
ag39
ag40
ag40
ag39
ag39
ag40
ag40
ag40
ag39
ag40
ag40
ag40
ag40
ag39
ag40
ag39
aasg41
(lp1014
g1005
ag1003
ag1006
ag1001
ag1007
ag1008
asg23
I1
sbsg36
(lp1015
(lp1016
g39
ag40
ag39
ag40
ag40
ag40
ag40
ag40
ag40
ag40
ag39
ag40
ag39
ag39
ag39
ag40
ag40
ag40
ag40
ag40
ag40
aa(lp1017
g39
ag40
ag39
ag40
ag40
ag40
ag40
ag40
ag39
ag40
ag39
ag40
ag39
ag39
ag39
ag39
ag40
ag40
ag39
ag40
ag40
aa(lp1018
g39
ag40
ag39
ag39
ag40
ag40
ag39
ag40
ag39
ag40
ag39
ag40
ag40
ag39
ag39
ag40
ag40
ag40
ag40
ag40
ag40
aasg41
(lp1019
g1005
ag1003
ag1011
ag1012
ag1006
ag1001
ag1013
ag1007
ag1008
asg23
I1
sbsg25
(iid3_node
node
p1020
(dp1021
g2
g98
sg8
g980
sg4
(iid3_node
node
p1022
(dp1023
g23
I0
sg8
g1020
sg24
I01
sbsg25
(iid3_node
node
p1024
(dp1025
g23
I1
sg8
g1020
sg24
I01
sbsg36
(lp1026
(lp1027
g39
ag39
ag40
ag39
ag40
ag40
ag39
ag39
ag40
ag40
ag40
ag40
ag39
ag39
ag39
ag40
ag40
ag40
ag39
ag40
ag39
aa(lp1028
g39
ag40
ag39
ag40
ag40
ag40
ag40
ag39
ag39
ag40
ag40
ag40
ag39
ag39
ag39
ag40
ag40
ag40
ag39
ag40
ag39
aa(lp1029
g39
ag40
ag40
ag40
ag40
ag39
ag39
ag39
ag40
ag39
ag39
ag40
ag40
ag39
ag39
ag40
ag40
ag40
ag39
ag40
ag39
aa(lp1030
g39
ag39
ag39
ag39
ag40
ag40
ag39
ag39
ag40
ag40
ag39
ag40
ag39
ag39
ag40
ag39
ag40
ag40
ag40
ag40
ag39
aa(lp1031
g39
ag39
ag39
ag39
ag40
ag39
ag40
ag39
ag40
ag40
ag39
ag40
ag40
ag39
ag40
ag39
ag40
ag40
ag39
ag40
ag39
aasg41
(lp1032
(lp1033
g39
ag40
ag39
ag40
ag40
ag40
ag39
ag39
ag40
ag40
ag39
ag40
ag40
ag39
ag39
ag40
ag40
ag40
ag39
ag39
ag40
aasg23
I0
sbsg36
(lp1034
g1005
ag1003
ag1016
ag1017
ag1011
ag1012
ag1006
ag1018
ag1001
ag1013
ag1007
ag1008
asg41
(lp1035
g1027
ag1033
ag1028
ag1029
ag1030
ag1031
asg23
I1
sbsg25
(iid3_node
node
p1036
(dp1037
g2
g47
sg8
g978
sg4
(iid3_node
node
p1038
(dp1039
g2
g445
sg8
g1036
sg4
(iid3_node
node
p1040
(dp1041
g23
I0
sg8
g1038
sg24
I01
sbsg25
(iid3_node
node
p1042
(dp1043
g2
g11
sg8
g1038
sg4
(iid3_node
node
p1044
(dp1045
g23
I1
sg8
g1042
sg24
I01
sbsg25
(iid3_node
node
p1046
(dp1047
g2
g28
sg8
g1042
sg4
(iid3_node
node
p1048
(dp1049
g23
I1
sg8
g1046
sg24
I01
sbsg25
(iid3_node
node
p1050
(dp1051
g23
I0
sg8
g1046
sg24
I01
sbsg36
(lp1052
(lp1053
g39
ag39
ag40
ag39
ag40
ag40
ag39
ag39
ag39
ag40
ag39
ag40
ag39
ag39
ag39
ag40
ag39
ag40
ag39
ag39
ag40
aasg41
(lp1054
(lp1055
g39
ag39
ag40
ag40
ag40
ag40
ag39
ag40
ag40
ag39
ag39
ag40
ag40
ag39
ag39
ag39
ag39
ag40
ag39
ag39
ag39
aasg23
I1
sbsg36
(lp1056
(lp1057
g39
ag39
ag40
ag40
ag40
ag40
ag40
ag39
ag39
ag40
ag39
ag40
ag39
ag39
ag39
ag40
ag39
ag40
ag40
ag39
ag40
aa(lp1058
g39
ag39
ag40
ag40
ag40
ag39
ag40
ag40
ag40
ag39
ag39
ag40
ag40
ag39
ag39
ag39
ag39
ag40
ag40
ag40
ag40
aasg41
(lp1059
g1053
ag1055
asg23
I1
sbsg36
(lp1060
(lp1061
g39
ag40
ag40
ag39
ag40
ag40
ag40
ag40
ag39
ag39
ag40
ag40
ag40
ag39
ag40
ag40
ag39
ag40
ag40
ag40
ag39
aa(lp1062
g39
ag39
ag40
ag39
ag40
ag39
ag40
ag40
ag40
ag39
ag39
ag40
ag40
ag39
ag40
ag39
ag39
ag40
ag40
ag39
ag39
aasg41
(lp1063
g1057
ag1053
ag1058
ag1055
asg23
I1
sbsg25
(iid3_node
node
p1064
(dp1065
g23
I1
sg8
g1036
sg24
I01
sbsg36
(lp1066
g1057
ag1061
ag1062
ag1053
ag1058
ag1055
asg41
(lp1067
(lp1068
g39
ag39
ag39
ag40
ag40
ag39
ag40
ag40
ag40
ag40
ag39
ag40
ag39
ag39
ag40
ag39
ag39
ag40
ag39
ag40
ag40
aa(lp1069
g39
ag40
ag39
ag40
ag40
ag40
ag40
ag39
ag39
ag40
ag39
ag40
ag39
ag39
ag40
ag40
ag39
ag40
ag39
ag39
ag40
aa(lp1070
g39
ag40
ag39
ag39
ag40
ag39
ag40
ag40
ag39
ag40
ag40
ag40
ag40
ag39
ag40
ag39
ag39
ag40
ag39
ag39
ag40
aa(lp1071
g39
ag40
ag39
ag39
ag40
ag39
ag39
ag40
ag40
ag40
ag39
ag40
ag39
ag39
ag40
ag39
ag39
ag40
ag39
ag40
ag40
aa(lp1072
g39
ag40
ag39
ag40
ag40
ag40
ag39
ag39
ag40
ag39
ag40
ag40
ag40
ag39
ag39
ag40
ag39
ag40
ag40
ag39
ag40
aa(lp1073
g39
ag39
ag39
ag39
ag40
ag39
ag40
ag40
ag40
ag39
ag39
ag40
ag40
ag39
ag40
ag39
ag39
ag40
ag40
ag39
ag40
aa(lp1074
g39
ag39
ag39
ag40
ag40
ag40
ag40
ag39
ag40
ag40
ag39
ag40
ag40
ag39
ag40
ag40
ag39
ag40
ag40
ag39
ag40
aa(lp1075
g39
ag39
ag39
ag39
ag40
ag40
ag39
ag40
ag39
ag39
ag39
ag40
ag40
ag39
ag40
ag40
ag39
ag40
ag39
ag39
ag40
aasg23
I1
sbsg36
(lp1076
g1027
ag1005
ag1033
ag1003
ag1016
ag1017
ag1011
ag1012
ag1006
ag1018
ag1028
ag1001
ag1013
ag1029
ag1007
ag1030
ag1008
ag1031
asg41
(lp1077
g1057
ag1068
ag1069
ag1070
ag1061
ag1071
ag1062
ag1072
ag1053
ag1073
ag1058
ag1074
ag1055
ag1075
asg23
I1
sbsg25
(iid3_node
node
p1078
(dp1079
g2
g28
sg8
g976
sg4
(iid3_node
node
p1080
(dp1081
g2
g7
sg8
g1078
sg4
(iid3_node
node
p1082
(dp1083
g2
g17
sg8
g1080
sg4
(iid3_node
node
p1084
(dp1085
g2
g11
sg8
g1082
sg4
(iid3_node
node
p1086
(dp1087
g23
I1
sg8
g1084
sg24
I01
sbsg25
(iid3_node
node
p1088
(dp1089
g23
I0
sg8
g1084
sg24
I01
sbsg36
(lp1090
(lp1091
g39
ag39
ag40
ag40
ag40
ag39
ag40
ag40
ag39
ag39
ag40
ag40
ag40
ag39
ag39
ag40
ag40
ag39
ag40
ag39
ag40
aasg41
(lp1092
(lp1093
g39
ag39
ag39
ag40
ag40
ag39
ag40
ag40
ag40
ag39
ag40
ag40
ag39
ag39
ag39
ag40
ag39
ag39
ag39
ag39
ag39
aasg23
I1
sbsg25
(iid3_node
node
p1094
(dp1095
g23
I1
sg8
g1082
sg24
I01
sbsg36
(lp1096
g1091
ag1093
asg41
(lp1097
(lp1098
g39
ag40
ag39
ag40
ag40
ag40
ag39
ag40
ag40
ag39
ag39
ag40
ag39
ag39
ag39
ag40
ag39
ag39
ag39
ag40
ag40
aa(lp1099
g39
ag39
ag39
ag40
ag40
ag39
ag39
ag40
ag39
ag40
ag39
ag40
ag39
ag39
ag40
ag40
ag40
ag39
ag39
ag40
ag40
aa(lp1100
g39
ag39
ag40
ag39
ag40
ag39
ag39
ag40
ag39
ag39
ag39
ag40
ag39
ag39
ag39
ag40
ag39
ag39
ag39
ag39
ag40
aa(lp1101
g39
ag40
ag39
ag39
ag40
ag40
ag40
ag40
ag40
ag40
ag39
ag40
ag39
ag39
ag39
ag40
ag40
ag39
ag40
ag39
ag40
aa(lp1102
g39
ag39
ag39
ag40
ag40
ag39
ag39
ag40
ag40
ag39
ag39
ag40
ag39
ag39
ag39
ag40
ag39
ag39
ag39
ag40
ag40
aasg23
I1
sbsg25
(iid3_node
node
p1103
(dp1104
g23
I1
sg8
g1080
sg24
I01
sbsg36
(lp1105
g1098
ag1099
ag1100
ag1091
ag1101
ag1102
ag1093
asg41
(lp1106
(lp1107
g39
ag40
ag39
ag40
ag40
ag39
ag40
ag39
ag40
ag40
ag39
ag40
ag39
ag39
ag40
ag40
ag40
ag39
ag40
ag39
ag40
aa(lp1108
g39
ag39
ag40
ag40
ag40
ag39
ag39
ag39
ag39
ag40
ag40
ag40
ag39
ag39
ag39
ag40
ag40
ag39
ag40
ag39
ag40
aa(lp1109
g39
ag39
ag40
ag39
ag40
ag39
ag40
ag39
ag40
ag40
ag40
ag40
ag40
ag39
ag39
ag40
ag40
ag39
ag39
ag40
ag40
aa(lp1110
g39
ag39
ag39
ag40
ag40
ag39
ag40
ag39
ag40
ag40
ag39
ag40
ag39
ag39
ag39
ag40
ag40
ag39
ag39
ag39
ag40
aa(lp1111
g39
ag40
ag39
ag40
ag40
ag39
ag40
ag39
ag39
ag39
ag40
ag40
ag39
ag39
ag39
ag40
ag40
ag39
ag39
ag40
ag40
aa(lp1112
g39
ag40
ag39
ag40
ag40
ag40
ag40
ag39
ag40
ag40
ag40
ag40
ag39
ag39
ag39
ag40
ag39
ag39
ag39
ag39
ag40
aa(lp1113
g39
ag40
ag39
ag39
ag40
ag39
ag39
ag39
ag40
ag40
ag39
ag40
ag40
ag39
ag40
ag40
ag40
ag39
ag40
ag39
ag40
aa(lp1114
g39
ag39
ag39
ag39
ag40
ag39
ag40
ag39
ag40
ag40
ag39
ag40
ag39
ag39
ag40
ag40
ag39
ag39
ag40
ag40
ag40
aa(lp1115
g39
ag40
ag39
ag40
ag40
ag39
ag39
ag39
ag40
ag39
ag40
ag40
ag40
ag39
ag40
ag40
ag39
ag39
ag39
ag39
ag40
aa(lp1116
g39
ag39
ag40
ag39
ag40
ag39
ag39
ag39
ag40
ag39
ag40
ag40
ag40
ag39
ag40
ag40
ag39
ag39
ag40
ag40
ag40
aa(lp1117
g39
ag40
ag39
ag40
ag40
ag40
ag39
ag39
ag40
ag40
ag40
ag40
ag40
ag39
ag39
ag40
ag40
ag39
ag39
ag39
ag40
aa(lp1118
g39
ag39
ag39
ag40
ag40
ag39
ag39
ag39
ag40
ag39
ag40
ag40
ag39
ag39
ag40
ag40
ag39
ag39
ag40
ag40
ag40
aa(lp1119
g39
ag39
ag40
ag40
ag40
ag39
ag39
ag39
ag40
ag40
ag40
ag40
ag40
ag39
ag40
ag40
ag39
ag39
ag39
ag39
ag40
aa(lp1120
g39
ag39
ag40
ag40
ag40
ag40
ag40
ag39
ag40
ag39
ag40
ag40
ag40
ag39
ag40
ag40
ag39
ag39
ag40
ag39
ag40
aa(lp1121
g39
ag40
ag39
ag39
ag40
ag40
ag39
ag39
ag40
ag39
ag39
ag40
ag39
ag39
ag40
ag40
ag39
ag39
ag39
ag39
ag40
aa(lp1122
g39
ag39
ag39
ag39
ag40
ag40
ag39
ag39
ag40
ag39
ag40
ag40
ag40
ag39
ag39
ag40
ag39
ag39
ag40
ag39
ag40
aa(lp1123
g39
ag39
ag40
ag39
ag40
ag39
ag39
ag39
ag39
ag40
ag40
ag40
ag39
ag39
ag39
ag40
ag40
ag39
ag40
ag40
ag40
aa(lp1124
g39
ag40
ag39
ag39
ag40
ag39
ag39
ag39
ag40
ag40
ag40
ag40
ag40
ag39
ag39
ag40
ag40
ag39
ag39
ag40
ag40
aa(lp1125
g39
ag39
ag40
ag39
ag40
ag39
ag40
ag39
ag39
ag40
ag40
ag40
ag39
ag39
ag39
ag40
ag40
ag39
ag40
ag39
ag40
aa(lp1126
g39
ag40
ag39
ag40
ag40
ag39
ag40
ag39
ag40
ag39
ag39
ag40
ag40
ag39
ag40
ag40
ag39
ag39
ag39
ag40
ag40
aa(lp1127
g39
ag39
ag40
ag40
ag40
ag40
ag39
ag39
ag40
ag39
ag39
ag40
ag39
ag39
ag40
ag40
ag39
ag39
ag40
ag39
ag40
aa(lp1128
g39
ag40
ag39
ag39
ag40
ag39
ag40
ag39
ag39
ag40
ag39
ag40
ag39
ag39
ag40
ag40
ag40
ag39
ag39
ag39
ag40
aa(lp1129
g39
ag39
ag39
ag39
ag40
ag40
ag39
ag39
ag39
ag39
ag39
ag40
ag39
ag39
ag39
ag40
ag39
ag39
ag40
ag39
ag40
aasg23
I1
sbsg25
(iid3_node
node
p1130
(dp1131
g2
g7
sg8
g1078
sg4
(iid3_node
node
p1132
(dp1133
g2
g445
sg8
g1130
sg4
(iid3_node
node
p1134
(dp1135
g23
I1
sg8
g1132
sg24
I01
sbsg25
(iid3_node
node
p1136
(dp1137
g23
I0
sg8
g1132
sg24
I01
sbsg36
(lp1138
(lp1139
g39
ag39
ag40
ag40
ag40
ag39
ag40
ag40
ag40
ag39
ag40
ag40
ag39
ag39
ag40
ag39
ag39
ag39
ag40
ag39
ag40
aa(lp1140
g39
ag39
ag39
ag40
ag40
ag39
ag40
ag40
ag39
ag39
ag39
ag40
ag39
ag39
ag40
ag39
ag39
ag39
ag39
ag40
ag40
aa(lp1141
g39
ag39
ag39
ag39
ag40
ag39
ag40
ag40
ag40
ag39
ag39
ag40
ag40
ag39
ag40
ag39
ag40
ag39
ag39
ag39
ag40
aa(lp1142
g39
ag40
ag39
ag39
ag40
ag40
ag39
ag40
ag39
ag40
ag40
ag40
ag39
ag39
ag40
ag39
ag40
ag39
ag40
ag39
ag40
aa(lp1143
g39
ag40
ag39
ag40
ag40
ag40
ag39
ag40
ag39
ag39
ag40
ag40
ag39
ag39
ag40
ag39
ag40
ag39
ag40
ag39
ag40
aa(lp1144
g39
ag40
ag39
ag40
ag40
ag39
ag40
ag40
ag39
ag39
ag39
ag40
ag39
ag39
ag40
ag39
ag39
ag39
ag39
ag39
ag40
aasg41
(lp1145
(lp1146
g39
ag40
ag39
ag39
ag40
ag39
ag40
ag40
ag39
ag39
ag40
ag40
ag40
ag39
ag39
ag39
ag39
ag39
ag40
ag40
ag39
aasg23
I1
sbsg25
(iid3_node
node
p1147
(dp1148
g23
I0
sg8
g1130
sg24
I01
sbsg36
(lp1149
g1139
ag1140
ag1141
ag1142
ag1146
ag1143
ag1144
asg41
(lp1150
(lp1151
g39
ag39
ag39
ag40
ag40
ag40
ag40
ag39
ag40
ag40
ag40
ag40
ag40
ag39
ag40
ag39
ag40
ag39
ag39
ag40
ag39
aa(lp1152
g39
ag39
ag39
ag40
ag40
ag40
ag40
ag39
ag39
ag39
ag40
ag40
ag39
ag39
ag40
ag39
ag39
ag39
ag39
ag40
ag39
aa(lp1153
g39
ag39
ag40
ag39
ag40
ag40
ag39
ag39
ag40
ag39
ag39
ag40
ag39
ag39
ag39
ag39
ag40
ag39
ag40
ag39
ag39
aasg23
I1
sbsg36
(lp1154
g1107
ag1108
ag1109
ag1110
ag1111
ag1112
ag1113
ag1098
ag1114
ag1099
ag1115
ag1100
ag1116
ag1117
ag1118
ag1119
ag1091
ag1120
ag1121
ag1101
ag1122
ag1123
ag1102
ag1124
ag1125
ag1093
ag1126
ag1127
ag1128
ag1129
asg41
(lp1155
g1151
ag1139
ag1140
ag1141
ag1142
ag1152
ag1146
ag1153
ag1143
ag1144
asg23
I1
sbsg36
(lp1156
g1027
ag1057
ag1005
ag1033
ag1068
ag1069
ag1070
ag1061
ag1003
ag1071
ag1016
ag1017
ag1062
ag1011
ag1012
ag1072
ag1006
ag1053
ag1018
ag1028
ag1001
ag1073
ag1013
ag1058
ag1029
ag1007
ag1074
ag1055
ag1030
ag1008
ag1031
ag1075
asg41
(lp1157
g1151
ag1107
ag1108
ag1139
ag1109
ag1110
ag1111
ag1140
ag1112
ag1141
ag1142
ag1113
ag1098
ag1114
ag1099
ag1115
ag1100
ag1116
ag1117
ag1118
ag1119
ag1091
ag1120
ag1121
ag1101
ag1122
ag1123
ag1152
ag1146
ag1153
ag1102
ag1143
ag1124
ag1125
ag1093
ag1126
ag1144
ag1127
ag1128
ag1129
asg23
I1
sbsg25
(iid3_node
node
p1158
(dp1159
g2
g82
sg8
g974
sg4
(iid3_node
node
p1160
(dp1161
g2
g47
sg8
g1158
sg4
(iid3_node
node
p1162
(dp1163
g2
g217
sg8
g1160
sg4
(iid3_node
node
p1164
(dp1165
g23
I0
sg8
g1162
sg24
I01
sbsg25
(iid3_node
node
p1166
(dp1167
g2
g14
sg8
g1162
sg4
(iid3_node
node
p1168
(dp1169
g2
g50
sg8
g1166
sg4
(iid3_node
node
p1170
(dp1171
g23
I0
sg8
g1168
sg24
I01
sbsg25
(iid3_node
node
p1172
(dp1173
g23
I1
sg8
g1168
sg24
I01
sbsg36
(lp1174
(lp1175
g39
ag39
ag40
ag39
ag39
ag40
ag39
ag39
ag39
ag39
ag39
ag40
ag40
ag39
ag40
ag39
ag40
ag40
ag40
ag39
ag39
aasg41
(lp1176
(lp1177
g39
ag39
ag40
ag39
ag39
ag40
ag40
ag40
ag39
ag39
ag39
ag40
ag40
ag39
ag39
ag40
ag39
ag40
ag39
ag40
ag40
aa(lp1178
g39
ag39
ag40
ag39
ag39
ag40
ag39
ag39
ag40
ag40
ag39
ag40
ag40
ag39
ag39
ag39
ag39
ag40
ag40
ag39
ag40
aa(lp1179
g39
ag39
ag40
ag40
ag39
ag40
ag40
ag39
ag39
ag39
ag39
ag40
ag39
ag39
ag39
ag39
ag39
ag40
ag40
ag39
ag40
aasg23
I1
sbsg25
(iid3_node
node
p1180
(dp1181
g23
I0
sg8
g1166
sg24
I01
sbsg36
(lp1182
g1175
ag1177
ag1178
ag1179
asg41
(lp1183
(lp1184
g39
ag39
ag40
ag40
ag39
ag40
ag40
ag40
ag39
ag40
ag39
ag40
ag40
ag39
ag39
ag39
ag39
ag39
ag40
ag40
ag39
aasg23
I1
sbsg36
(lp1185
(lp1186
g39
ag40
ag40
ag39
ag39
ag40
ag40
ag40
ag39
ag39
ag39
ag40
ag40
ag39
ag39
ag40
ag40
ag39
ag39
ag39
ag39
aa(lp1187
g39
ag40
ag40
ag39
ag39
ag40
ag39
ag40
ag40
ag40
ag40
ag40
ag39
ag39
ag40
ag39
ag39
ag39
ag39
ag40
ag39
aa(lp1188
g39
ag40
ag40
ag40
ag39
ag40
ag40
ag40
ag40
ag39
ag39
ag40
ag40
ag39
ag39
ag39
ag40
ag40
ag40
ag39
ag39
aa(lp1189
g39
ag40
ag40
ag39
ag39
ag40
ag39
ag39
ag40
ag39
ag40
ag40
ag39
ag39
ag39
ag40
ag39
ag39
ag39
ag40
ag39
aa(lp1190
g39
ag40
ag40
ag40
ag39
ag40
ag40
ag40
ag40
ag40
ag40
ag40
ag40
ag39
ag39
ag39
ag39
ag40
ag39
ag40
ag39
aa(lp1191
g39
ag40
ag40
ag39
ag39
ag40
ag40
ag39
ag39
ag39
ag39
ag40
ag39
ag39
ag40
ag39
ag40
ag40
ag39
ag40
ag39
aasg41
(lp1192
g1175
ag1184
ag1177
ag1178
ag1179
asg23
I0
sbsg25
(iid3_node
node
p1193
(dp1194
g23
I1
sg8
g1160
sg24
I01
sbsg36
(lp1195
g1186
ag1175
ag1184
ag1187
ag1177
ag1188
ag1189
ag1190
ag1178
ag1191
ag1179
asg41
(lp1196
(lp1197
g39
ag40
ag39
ag39
ag39
ag40
ag40
ag40
ag39
ag39
ag39
ag40
ag40
ag39
ag39
ag39
ag39
ag40
ag40
ag39
ag40
aa(lp1198
g39
ag39
ag39
ag40
ag39
ag40
ag39
ag39
ag40
ag40
ag40
ag40
ag40
ag39
ag40
ag39
ag39
ag40
ag40
ag39
ag40
aa(lp1199
g39
ag40
ag39
ag40
ag39
ag40
ag39
ag40
ag39
ag39
ag39
ag40
ag39
ag39
ag39
ag40
ag39
ag40
ag39
ag40
ag40
aa(lp1200
g39
ag40
ag39
ag40
ag39
ag40
ag39
ag40
ag40
ag40
ag39
ag40
ag39
ag39
ag39
ag40
ag40
ag40
ag39
ag40
ag40
aa(lp1201
g39
ag39
ag39
ag40
ag39
ag40
ag40
ag40
ag40
ag40
ag40
ag40
ag40
ag39
ag40
ag39
ag39
ag40
ag39
ag40
ag40
aa(lp1202
g39
ag39
ag39
ag39
ag39
ag40
ag40
ag40
ag39
ag40
ag40
ag40
ag40
ag39
ag40
ag39
ag39
ag40
ag39
ag40
ag40
aa(lp1203
g39
ag40
ag39
ag40
ag39
ag40
ag39
ag39
ag39
ag40
ag39
ag40
ag39
ag39
ag40
ag40
ag39
ag40
ag39
ag39
ag40
aa(lp1204
g39
ag40
ag39
ag40
ag39
ag40
ag40
ag40
ag39
ag40
ag39
ag40
ag40
ag39
ag40
ag39
ag40
ag40
ag39
ag39
ag40
aa(lp1205
g39
ag40
ag39
ag39
ag39
ag40
ag40
ag39
ag40
ag40
ag40
ag40
ag39
ag39
ag40
ag39
ag40
ag40
ag39
ag39
ag40
aa(lp1206
g39
ag39
ag39
ag40
ag39
ag40
ag39
ag39
ag40
ag39
ag39
ag40
ag39
ag39
ag39
ag39
ag39
ag40
ag39
ag39
ag40
aa(lp1207
g39
ag39
ag39
ag40
ag39
ag40
ag39
ag40
ag40
ag39
ag40
ag40
ag39
ag39
ag40
ag40
ag39
ag40
ag39
ag40
ag40
aa(lp1208
g39
ag39
ag39
ag39
ag39
ag40
ag40
ag39
ag40
ag39
ag39
ag40
ag40
ag39
ag39
ag39
ag39
ag40
ag39
ag39
ag40
aa(lp1209
g39
ag40
ag39
ag40
ag39
ag40
ag39
ag39
ag40
ag40
ag40
ag40
ag40
ag39
ag40
ag39
ag40
ag40
ag40
ag39
ag40
aa(lp1210
g39
ag40
ag39
ag40
ag39
ag40
ag40
ag39
ag39
ag40
ag39
ag40
ag39
ag39
ag39
ag39
ag40
ag40
ag40
ag39
ag40
aa(lp1211
g39
ag40
ag39
ag39
ag39
ag40
ag39
ag40
ag39
ag40
ag40
ag40
ag39
ag39
ag40
ag39
ag40
ag40
ag39
ag40
ag40
aa(lp1212
g39
ag40
ag39
ag40
ag39
ag40
ag39
ag39
ag40
ag40
ag39
ag40
ag40
ag39
ag40
ag39
ag40
ag40
ag39
ag39
ag40
aasg23
I1
sbsg25
(iid3_node
node
p1213
(dp1214
g23
I0
sg8
g1158
sg24
I01
sbsg36
(lp1215
g1197
ag1186
ag1198
ag1199
ag1175
ag1200
ag1201
ag1202
ag1184
ag1187
ag1203
ag1204
ag1205
ag1177
ag1188
ag1189
ag1190
ag1206
ag1207
ag1208
ag1209
ag1210
ag1178
ag1191
ag1179
ag1211
ag1212
asg41
(lp1216
(lp1217
g39
ag39
ag40
ag39
ag39
ag39
ag39
ag40
ag40
ag40
ag39
ag40
ag40
ag39
ag40
ag40
ag39
ag40
ag40
ag40
ag39
aa(lp1218
g39
ag40
ag40
ag40
ag39
ag39
ag39
ag40
ag40
ag39
ag40
ag40
ag39
ag39
ag39
ag40
ag39
ag40
ag40
ag40
ag39
aa(lp1219
g39
ag40
ag39
ag39
ag39
ag39
ag40
ag39
ag40
ag40
ag39
ag40
ag39
ag39
ag39
ag40
ag40
ag40
ag39
ag40
ag39
aa(lp1220
g39
ag39
ag39
ag39
ag39
ag39
ag39
ag39
ag39
ag39
ag40
ag40
ag39
ag39
ag40
ag39
ag39
ag40
ag39
ag40
ag39
aa(lp1221
g39
ag39
ag39
ag39
ag39
ag39
ag39
ag40
ag40
ag40
ag40
ag40
ag39
ag39
ag39
ag39
ag39
ag40
ag40
ag39
ag39
aa(lp1222
g39
ag39
ag40
ag40
ag39
ag39
ag39
ag39
ag39
ag39
ag39
ag40
ag39
ag39
ag40
ag39
ag40
ag40
ag39
ag40
ag39
aa(lp1223
g39
ag39
ag39
ag40
ag39
ag39
ag40
ag39
ag40
ag40
ag39
ag40
ag39
ag39
ag39
ag39
ag40
ag40
ag40
ag40
ag39
aa(lp1224
g39
ag39
ag40
ag40
ag39
ag39
ag39
ag39
ag40
ag39
ag39
ag40
ag39
ag39
ag39
ag40
ag40
ag40
ag40
ag40
ag39
aa(lp1225
g39
ag40
ag39
ag39
ag39
ag39
ag39
ag40
ag40
ag40
ag39
ag40
ag40
ag39
ag40
ag39
ag40
ag39
ag40
ag40
ag39
aa(lp1226
g39
ag39
ag39
ag40
ag39
ag39
ag39
ag40
ag40
ag39
ag40
ag40
ag40
ag39
ag40
ag40
ag39
ag39
ag39
ag39
ag39
aa(lp1227
g39
ag39
ag40
ag39
ag39
ag39
ag40
ag40
ag40
ag40
ag39
ag40
ag39
ag39
ag39
ag39
ag40
ag39
ag40
ag39
ag39
aa(lp1228
g39
ag39
ag40
ag40
ag39
ag39
ag39
ag39
ag40
ag39
ag39
ag40
ag39
ag39
ag39
ag39
ag40
ag40
ag39
ag39
ag39
aa(lp1229
g39
ag39
ag39
ag39
ag39
ag39
ag40
ag40
ag40
ag39
ag39
ag40
ag39
ag39
ag40
ag40
ag40
ag40
ag40
ag39
ag39
aa(lp1230
g39
ag39
ag40
ag40
ag39
ag39
ag39
ag39
ag39
ag40
ag39
ag40
ag40
ag39
ag39
ag40
ag39
ag39
ag40
ag39
ag39
aa(lp1231
g39
ag40
ag40
ag40
ag39
ag39
ag39
ag40
ag39
ag40
ag40
ag40
ag40
ag39
ag39
ag39
ag40
ag39
ag40
ag39
ag39
aasg23
I0
sbsg36
(lp1232
g1151
ag1027
ag1057
ag1107
ag1108
ag1005
ag1033
ag1139
ag1068
ag1109
ag1110
ag1111
ag1140
ag1112
ag1141
ag1142
ag1069
ag1070
ag1113
ag1061
ag1098
ag1114
ag1003
ag1099
ag1115
ag1100
ag1071
ag1016
ag1017
ag1116
ag1117
ag1062
ag1011
ag1118
ag1012
ag1119
ag1072
ag1006
ag1053
ag1091
ag1120
ag1121
ag1018
ag1101
ag1122
ag1123
ag1028
ag1001
ag1073
ag1152
ag1146
ag1153
ag1102
ag1143
ag1124
ag1013
ag1125
ag1058
ag1093
ag1126
ag1029
ag1144
ag1007
ag1127
ag1074
ag1055
ag1030
ag1128
ag1008
ag1031
ag1129
ag1075
asg41
(lp1233
g1217
ag1197
ag1186
ag1198
ag1218
ag1199
ag1175
ag1200
ag1219
ag1201
ag1202
ag1220
ag1184
ag1187
ag1203
ag1221
ag1204
ag1222
ag1223
ag1224
ag1205
ag1225
ag1177
ag1226
ag1188
ag1189
ag1190
ag1206
ag1207
ag1208
ag1209
ag1210
ag1178
ag1227
ag1228
ag1191
ag1179
ag1229
ag1211
ag1230
ag1231
ag1212
asg23
I1
sbsg36
(lp1234
g921
ag922
ag955
ag940
ag910
ag956
ag957
ag944
ag958
ag923
ag945
ag924
ag925
ag911
ag926
ag959
ag960
ag915
ag903
ag900
ag927
ag961
ag928
ag962
ag946
ag929
ag963
ag930
ag964
ag947
ag965
ag904
ag931
ag932
ag966
ag967
ag905
ag948
ag968
ag969
ag933
ag941
ag934
ag912
ag942
ag901
ag913
ag970
ag935
ag971
ag972
ag973
ag949
asg41
(lp1235
g1217
ag1151
ag1197
ag1027
ag1057
ag1107
ag1186
ag1108
ag1005
ag1198
ag1033
ag1218
ag1139
ag1068
ag1109
ag1110
ag1111
ag1199
ag1140
ag1112
ag1141
ag1142
ag1069
ag1070
ag1113
ag1175
ag1061
ag1200
ag1219
ag1098
ag1201
ag1114
ag1003
ag1099
ag1115
ag1202
ag1220
ag1184
ag1100
ag1187
ag1071
ag1016
ag1017
ag1203
ag1116
ag1117
ag1062
ag1011
ag1118
ag1012
ag1119
ag1072
ag1006
ag1053
ag1091
ag1120
ag1221
ag1204
ag1222
ag1121
ag1018
ag1101
ag1223
ag1122
ag1123
ag1028
ag1224
ag1205
ag1001
ag1225
ag1177
ag1073
ag1226
ag1152
ag1188
ag1189
ag1146
ag1153
ag1102
ag1190
ag1143
ag1206
ag1207
ag1208
ag1124
ag1013
ag1209
ag1125
ag1210
ag1178
ag1227
ag1058
ag1228
ag1191
ag1093
ag1126
ag1029
ag1179
ag1229
ag1144
ag1007
ag1127
ag1074
ag1055
ag1211
ag1030
ag1128
ag1230
ag1008
ag1231
ag1031
ag1129
ag1075
ag1212
asg23
I1
sbsg25
(iid3_node
node
p1236
(dp1237
g2
g408
sg8
g873
sg4
(iid3_node
node
p1238
(dp1239
g23
I0
sg8
g1236
sg24
I01
sbsg25
(iid3_node
node
p1240
(dp1241
g2
g323
sg8
g1236
sg4
(iid3_node
node
p1242
(dp1243
g2
g47
sg8
g1240
sg4
(iid3_node
node
p1244
(dp1245
g2
g7
sg8
g1242
sg4
(iid3_node
node
p1246
(dp1247
g2
g146
sg8
g1244
sg4
(iid3_node
node
p1248
(dp1249
g23
I1
sg8
g1246
sg24
I01
sbsg25
(iid3_node
node
p1250
(dp1251
g23
I0
sg8
g1246
sg24
I01
sbsg36
(lp1252
(lp1253
g40
ag39
ag40
ag40
ag39
ag39
ag40
ag40
ag40
ag39
ag39
ag39
ag40
ag39
ag40
ag39
ag40
ag39
ag39
ag40
ag40
aa(lp1254
g40
ag39
ag40
ag40
ag39
ag39
ag39
ag40
ag40
ag39
ag40
ag39
ag40
ag39
ag40
ag40
ag39
ag39
ag39
ag39
ag40
aa(lp1255
g40
ag39
ag40
ag40
ag39
ag39
ag40
ag40
ag40
ag39
ag39
ag39
ag40
ag39
ag39
ag39
ag39
ag40
ag40
ag39
ag40
aasg41
(lp1256
(lp1257
g40
ag39
ag40
ag40
ag39
ag40
ag39
ag40
ag39
ag40
ag40
ag39
ag39
ag39
ag40
ag40
ag39
ag39
ag39
ag40
ag39
aasg23
I1
sbsg25
(iid3_node
node
p1258
(dp1259
g23
I0
sg8
g1244
sg24
I01
sbsg36
(lp1260
g1257
ag1253
ag1254
ag1255
asg41
(lp1261
(lp1262
g40
ag40
ag40
ag40
ag39
ag40
ag39
ag39
ag40
ag40
ag40
ag39
ag39
ag39
ag39
ag39
ag40
ag40
ag39
ag39
ag39
aa(lp1263
g40
ag39
ag40
ag39
ag39
ag40
ag40
ag39
ag39
ag40
ag39
ag39
ag40
ag39
ag39
ag40
ag39
ag39
ag40
ag40
ag39
aa(lp1264
g40
ag39
ag40
ag40
ag39
ag39
ag40
ag39
ag40
ag40
ag39
ag39
ag39
ag39
ag39
ag39
ag39
ag39
ag39
ag39
ag39
aa(lp1265
g40
ag40
ag40
ag39
ag39
ag40
ag40
ag39
ag40
ag39
ag40
ag39
ag40
ag39
ag39
ag39
ag40
ag40
ag40
ag40
ag39
aa(lp1266
g40
ag39
ag40
ag39
ag39
ag39
ag39
ag39
ag39
ag39
ag39
ag39
ag40
ag39
ag39
ag39
ag39
ag39
ag40
ag40
ag39
aasg23
I0
sbsg25
(iid3_node
node
p1267
(dp1268
g23
I0
sg8
g1242
sg24
I01
sbsg36
(lp1269
g1262
ag1263
ag1257
ag1264
ag1253
ag1254
ag1265
ag1255
ag1266
asg41
(lp1270
(lp1271
g40
ag40
ag39
ag40
ag39
ag40
ag39
ag39
ag40
ag40
ag39
ag39
ag40
ag39
ag40
ag39
ag39
ag40
ag40
ag40
ag39
aa(lp1272
g40
ag39
ag39
ag39
ag39
ag39
ag40
ag40
ag39
ag40
ag40
ag39
ag40
ag39
ag40
ag40
ag40
ag39
ag39
ag39
ag39
aa(lp1273
g40
ag40
ag39
ag39
ag39
ag39
ag39
ag40
ag40
ag39
ag40
ag39
ag40
ag39
ag40
ag39
ag40
ag39
ag40
ag40
ag39
aa(lp1274
g40
ag39
ag39
ag39
ag39
ag40
ag40
ag39
ag39
ag39
ag39
ag39
ag40
ag39
ag40
ag39
ag39
ag40
ag40
ag39
ag39
aa(lp1275
g40
ag40
ag39
ag40
ag39
ag40
ag39
ag40
ag40
ag40
ag40
ag39
ag40
ag39
ag40
ag40
ag40
ag39
ag40
ag40
ag39
aa(lp1276
g40
ag39
ag39
ag40
ag39
ag40
ag40
ag39
ag40
ag39
ag40
ag39
ag40
ag39
ag39
ag39
ag40
ag40
ag40
ag39
ag39
aa(lp1277
g40
ag40
ag39
ag40
ag39
ag40
ag40
ag39
ag39
ag40
ag40
ag39
ag39
ag39
ag40
ag39
ag40
ag40
ag39
ag39
ag39
aa(lp1278
g40
ag40
ag39
ag40
ag39
ag40
ag39
ag40
ag40
ag39
ag39
ag39
ag40
ag39
ag40
ag40
ag40
ag40
ag39
ag40
ag39
aa(lp1279
g40
ag40
ag39
ag39
ag39
ag39
ag40
ag40
ag40
ag40
ag40
ag39
ag39
ag39
ag40
ag40
ag39
ag40
ag40
ag40
ag39
aa(lp1280
g40
ag39
ag39
ag39
ag39
ag39
ag39
ag40
ag39
ag39
ag39
ag39
ag40
ag39
ag39
ag40
ag40
ag40
ag40
ag40
ag39
aa(lp1281
g40
ag40
ag39
ag39
ag39
ag39
ag39
ag39
ag40
ag39
ag39
ag39
ag39
ag39
ag40
ag39
ag40
ag39
ag40
ag40
ag39
aa(lp1282
g40
ag39
ag39
ag39
ag39
ag39
ag39
ag40
ag40
ag40
ag40
ag39
ag39
ag39
ag39
ag39
ag39
ag39
ag40
ag39
ag39
aa(lp1283
g40
ag39
ag39
ag39
ag39
ag39
ag39
ag39
ag39
ag40
ag40
ag39
ag40
ag39
ag39
ag39
ag40
ag40
ag40
ag40
ag39
aa(lp1284
g40
ag40
ag39
ag39
ag39
ag39
ag40
ag39
ag39
ag39
ag39
ag39
ag40
ag39
ag40
ag40
ag39
ag39
ag40
ag40
ag39
aa(lp1285
g40
ag39
ag39
ag39
ag39
ag39
ag40
ag39
ag40
ag39
ag40
ag39
ag39
ag39
ag40
ag40
ag39
ag39
ag39
ag40
ag39
aa(lp1286
g40
ag39
ag39
ag39
ag39
ag40
ag39
ag40
ag40
ag40
ag40
ag39
ag40
ag39
ag40
ag39
ag40
ag39
ag40
ag40
ag39
aasg23
I0
sbsg25
(iid3_node
node
p1287
(dp1288
g2
g82
sg8
g1240
sg4
(iid3_node
node
p1289
(dp1290
g2
g47
sg8
g1287
sg4
(iid3_node
node
p1291
(dp1292
g2
g445
sg8
g1289
sg4
(iid3_node
node
p1293
(dp1294
g23
I0
sg8
g1291
sg24
I01
sbsg25
(iid3_node
node
p1295
(dp1296
g2
g246
sg8
g1291
sg4
(iid3_node
node
p1297
(dp1298
g23
I1
sg8
g1295
sg24
I01
sbsg25
(iid3_node
node
p1299
(dp1300
g23
I0
sg8
g1295
sg24
I01
sbsg36
(lp1301
(lp1302
g39
ag39
ag40
ag40
ag39
ag40
ag40
ag39
ag39
ag40
ag39
ag39
ag39
ag39
ag39
ag40
ag39
ag40
ag40
ag39
ag40
aasg41
(lp1303
(lp1304
g39
ag40
ag40
ag39
ag39
ag40
ag40
ag39
ag39
ag40
ag40
ag39
ag40
ag39
ag39
ag40
ag39
ag40
ag40
ag40
ag39
aa(lp1305
g39
ag39
ag40
ag39
ag39
ag40
ag39
ag40
ag39
ag40
ag39
ag39
ag39
ag39
ag39
ag39
ag40
ag40
ag39
ag39
ag39
aasg23
I0
sbsg36
(lp1306
(lp1307
g39
ag39
ag40
ag39
ag39
ag40
ag39
ag39
ag40
ag40
ag39
ag39
ag40
ag39
ag40
ag40
ag40
ag40
ag39
ag39
ag39
aa(lp1308
g39
ag39
ag40
ag40
ag39
ag40
ag39
ag40
ag40
ag39
ag40
ag39
ag39
ag39
ag40
ag39
ag39
ag40
ag40
ag40
ag39
aa(lp1309
g39
ag40
ag40
ag40
ag39
ag40
ag40
ag39
ag39
ag39
ag39
ag39
ag39
ag39
ag40
ag40
ag39
ag40
ag39
ag39
ag39
aa(lp1310
g39
ag40
ag40
ag39
ag39
ag40
ag40
ag39
ag40
ag40
ag40
ag39
ag39
ag39
ag40
ag39
ag39
ag40
ag40
ag40
ag39
aasg41
(lp1311
g1304
ag1302
ag1305
asg23
I0
sbsg25
(iid3_node
node
p1312
(dp1313
g2
g14
sg8
g1289
sg4
(iid3_node
node
p1314
(dp1315
g2
g217
sg8
g1312
sg4
(iid3_node
node
p1316
(dp1317
g2
g20
sg8
g1314
sg4
(iid3_node
node
p1318
(dp1319
g23
I1
sg8
g1316
sg24
I01
sbsg25
(iid3_node
node
p1320
(dp1321
g23
I0
sg8
g1316
sg24
I01
sbsg36
(lp1322
(lp1323
g39
ag40
ag39
ag40
ag39
ag40
ag40
ag40
ag40
ag40
ag40
ag39
ag39
ag39
ag40
ag40
ag40
ag40
ag39
ag39
ag40
aa(lp1324
g39
ag40
ag39
ag40
ag39
ag40
ag40
ag40
ag40
ag39
ag39
ag39
ag39
ag39
ag40
ag40
ag40
ag40
ag39
ag40
ag40
aa(lp1325
g39
ag40
ag39
ag39
ag39
ag40
ag40
ag39
ag40
ag40
ag40
ag39
ag39
ag39
ag40
ag39
ag39
ag40
ag40
ag39
ag40
aasg41
(lp1326
(lp1327
g39
ag40
ag39
ag39
ag39
ag40
ag39
ag40
ag40
ag39
ag40
ag39
ag39
ag39
ag39
ag39
ag39
ag40
ag40
ag39
ag39
aa(lp1328
g39
ag40
ag39
ag39
ag39
ag40
ag39
ag40
ag40
ag40
ag39
ag39
ag40
ag39
ag40
ag39
ag39
ag40
ag39
ag39
ag39
aasg23
I1
sbsg25
(iid3_node
node
p1329
(dp1330
g23
I1
sg8
g1314
sg24
I01
sbsg36
(lp1331
g1323
ag1324
ag1325
ag1327
ag1328
asg41
(lp1332
(lp1333
g39
ag39
ag39
ag40
ag39
ag40
ag40
ag39
ag40
ag40
ag40
ag39
ag40
ag39
ag40
ag39
ag39
ag40
ag40
ag39
ag40
aa(lp1334
g39
ag39
ag39
ag39
ag39
ag40
ag39
ag39
ag39
ag39
ag40
ag39
ag39
ag39
ag40
ag40
ag39
ag40
ag39
ag39
ag40
aa(lp1335
g39
ag39
ag39
ag40
ag39
ag40
ag40
ag40
ag39
ag40
ag39
ag39
ag39
ag39
ag39
ag40
ag39
ag40
ag40
ag39
ag40
aa(lp1336
g39
ag39
ag39
ag40
ag39
ag40
ag40
ag39
ag40
ag39
ag39
ag39
ag40
ag39
ag39
ag40
ag39
ag40
ag40
ag39
ag40
aa(lp1337
g39
ag39
ag39
ag40
ag39
ag40
ag40
ag40
ag40
ag39
ag39
ag39
ag40
ag39
ag39
ag39
ag39
ag40
ag39
ag39
ag40
aa(lp1338
g39
ag39
ag39
ag39
ag39
ag40
ag39
ag40
ag40
ag40
ag40
ag39
ag40
ag39
ag40
ag40
ag39
ag40
ag40
ag40
ag40
aa(lp1339
g39
ag39
ag39
ag40
ag39
ag40
ag40
ag40
ag39
ag40
ag39
ag39
ag40
ag39
ag39
ag40
ag39
ag40
ag39
ag40
ag40
aa(lp1340
g39
ag39
ag39
ag40
ag39
ag40
ag40
ag40
ag40
ag40
ag39
ag39
ag39
ag39
ag39
ag40
ag39
ag40
ag40
ag39
ag40
aa(lp1341
g39
ag39
ag39
ag39
ag39
ag40
ag40
ag40
ag39
ag40
ag39
ag39
ag40
ag39
ag39
ag39
ag39
ag40
ag40
ag39
ag40
aa(lp1342
g39
ag39
ag39
ag39
ag39
ag40
ag39
ag39
ag40
ag40
ag40
ag39
ag39
ag39
ag40
ag39
ag39
ag40
ag39
ag39
ag40
aa(lp1343
g39
ag39
ag39
ag40
ag39
ag40
ag39
ag40
ag40
ag40
ag40
ag39
ag40
ag39
ag40
ag39
ag39
ag40
ag40
ag39
ag40
aasg23
I1
sbsg25
(iid3_node
node
p1344
(dp1345
g23
I0
sg8
g1312
sg24
I01
sbsg36
(lp1346
g1323
ag1333
ag1334
ag1335
ag1336
ag1337
ag1338
ag1339
ag1324
ag1340
ag1325
ag1341
ag1327
ag1342
ag1343
ag1328
asg41
(lp1347
(lp1348
g39
ag39
ag39
ag40
ag39
ag40
ag39
ag39
ag39
ag40
ag40
ag39
ag40
ag39
ag40
ag40
ag39
ag39
ag39
ag39
ag39
aa(lp1349
g39
ag39
ag39
ag40
ag39
ag40
ag40
ag39
ag40
ag40
ag39
ag39
ag39
ag39
ag39
ag40
ag39
ag39
ag40
ag39
ag39
aasg23
I1
sbsg36
(lp1350
g1307
ag1308
ag1304
ag1309
ag1302
ag1305
ag1310
asg41
(lp1351
g1323
ag1348
ag1333
ag1334
ag1335
ag1336
ag1337
ag1338
ag1339
ag1324
ag1340
ag1349
ag1325
ag1341
ag1327
ag1342
ag1343
ag1328
asg23
I1
sbsg25
(iid3_node
node
p1352
(dp1353
g23
I0
sg8
g1287
sg24
I01
sbsg36
(lp1354
g1323
ag1348
ag1307
ag1308
ag1304
ag1333
ag1309
ag1334
ag1335
ag1336
ag1337
ag1302
ag1338
ag1339
ag1324
ag1340
ag1349
ag1325
ag1341
ag1327
ag1305
ag1342
ag1343
ag1310
ag1328
asg41
(lp1355
(lp1356
g39
ag40
ag39
ag39
ag39
ag39
ag40
ag40
ag40
ag39
ag40
ag39
ag40
ag39
ag39
ag40
ag40
ag40
ag40
ag39
ag39
aa(lp1357
g39
ag39
ag39
ag40
ag39
ag39
ag39
ag39
ag40
ag40
ag40
ag39
ag39
ag39
ag40
ag39
ag40
ag39
ag40
ag39
ag39
aa(lp1358
g39
ag39
ag39
ag40
ag39
ag39
ag40
ag40
ag40
ag39
ag40
ag39
ag40
ag39
ag40
ag39
ag40
ag39
ag39
ag40
ag39
aa(lp1359
g39
ag40
ag40
ag39
ag39
ag39
ag39
ag39
ag39
ag40
ag39
ag39
ag39
ag39
ag40
ag40
ag39
ag40
ag39
ag39
ag39
aa(lp1360
g39
ag40
ag39
ag40
ag39
ag39
ag40
ag40
ag39
ag40
ag39
ag39
ag40
ag39
ag40
ag39
ag39
ag40
ag39
ag39
ag39
aa(lp1361
g39
ag40
ag39
ag39
ag39
ag39
ag40
ag40
ag40
ag39
ag40
ag39
ag39
ag39
ag39
ag39
ag40
ag39
ag39
ag40
ag39
aa(lp1362
g39
ag39
ag40
ag40
ag39
ag39
ag40
ag39
ag40
ag40
ag39
ag39
ag39
ag39
ag39
ag39
ag39
ag40
ag39
ag40
ag39
aa(lp1363
g39
ag39
ag40
ag39
ag39
ag39
ag40
ag40
ag40
ag39
ag39
ag39
ag40
ag39
ag40
ag40
ag39
ag40
ag39
ag39
ag39
aa(lp1364
g39
ag39
ag39
ag40
ag39
ag39
ag39
ag39
ag39
ag39
ag40
ag39
ag40
ag39
ag39
ag40
ag40
ag40
ag39
ag39
ag39
aasg23
I0
sbsg36
(lp1365
g1262
ag1263
ag1271
ag1257
ag1264
ag1253
ag1254
ag1272
ag1265
ag1273
ag1274
ag1255
ag1275
ag1276
ag1277
ag1278
ag1279
ag1280
ag1281
ag1266
ag1282
ag1283
ag1284
ag1285
ag1286
asg41
(lp1366
g1323
ag1348
ag1307
ag1356
ag1308
ag1304
ag1333
ag1309
ag1334
ag1357
ag1358
ag1359
ag1360
ag1335
ag1336
ag1337
ag1302
ag1338
ag1361
ag1362
ag1339
ag1324
ag1340
ag1349
ag1325
ag1341
ag1327
ag1305
ag1342
ag1363
ag1364
ag1343
ag1310
ag1328
asg23
I0
sbsg36
(lp1367
(lp1368
g39
ag39
ag40
ag40
ag40
ag40
ag40
ag39
ag39
ag39
ag40
ag39
ag39
ag39
ag39
ag39
ag39
ag40
ag40
ag40
ag39
aa(lp1369
g39
ag40
ag39
ag40
ag40
ag40
ag40
ag39
ag39
ag40
ag39
ag39
ag40
ag39
ag39
ag39
ag40
ag40
ag40
ag40
ag39
aa(lp1370
g39
ag40
ag39
ag40
ag40
ag40
ag39
ag39
ag39
ag40
ag39
ag39
ag39
ag39
ag40
ag40
ag40
ag40
ag39
ag39
ag39
aa(lp1371
g40
ag39
ag40
ag39
ag40
ag40
ag40
ag39
ag39
ag39
ag39
ag39
ag39
ag39
ag40
ag39
ag39
ag39
ag40
ag39
ag39
aa(lp1372
g40
ag40
ag39
ag40
ag40
ag40
ag40
ag39
ag40
ag39
ag40
ag39
ag39
ag39
ag40
ag39
ag39
ag39
ag39
ag39
ag39
aa(lp1373
g39
ag39
ag40
ag39
ag40
ag39
ag40
ag40
ag40
ag40
ag39
ag39
ag39
ag39
ag39
ag39
ag40
ag40
ag39
ag39
ag39
aa(lp1374
g39
ag40
ag39
ag39
ag40
ag39
ag39
ag40
ag40
ag39
ag40
ag39
ag40
ag39
ag40
ag40
ag40
ag40
ag39
ag40
ag39
aa(lp1375
g39
ag40
ag40
ag40
ag40
ag39
ag40
ag40
ag40
ag40
ag40
ag39
ag39
ag39
ag39
ag39
ag40
ag39
ag39
ag40
ag39
aa(lp1376
g40
ag39
ag40
ag39
ag40
ag40
ag39
ag39
ag40
ag39
ag39
ag39
ag40
ag39
ag39
ag40
ag39
ag40
ag40
ag39
ag39
aa(lp1377
g40
ag40
ag39
ag40
ag40
ag40
ag40
ag39
ag40
ag39
ag39
ag39
ag40
ag39
ag40
ag39
ag39
ag39
ag39
ag40
ag39
aa(lp1378
g39
ag40
ag40
ag40
ag40
ag40
ag40
ag39
ag40
ag39
ag40
ag39
ag40
ag39
ag39
ag40
ag40
ag40
ag40
ag40
ag39
aa(lp1379
g40
ag40
ag40
ag39
ag40
ag39
ag40
ag39
ag40
ag39
ag39
ag39
ag40
ag39
ag40
ag40
ag40
ag40
ag39
ag39
ag39
aa(lp1380
g39
ag40
ag40
ag40
ag40
ag40
ag40
ag39
ag40
ag40
ag40
ag39
ag39
ag39
ag40
ag39
ag39
ag39
ag39
ag40
ag39
aa(lp1381
g39
ag40
ag39
ag39
ag40
ag39
ag40
ag40
ag39
ag40
ag39
ag39
ag40
ag39
ag40
ag39
ag39
ag39
ag40
ag39
ag39
aa(lp1382
g40
ag40
ag39
ag39
ag40
ag39
ag39
ag40
ag40
ag40
ag40
ag39
ag39
ag39
ag39
ag40
ag40
ag39
ag39
ag40
ag39
aa(lp1383
g40
ag40
ag39
ag40
ag40
ag39
ag39
ag40
ag39
ag40
ag40
ag39
ag40
ag39
ag40
ag39
ag40
ag39
ag40
ag40
ag39
aa(lp1384
g39
ag39
ag40
ag39
ag40
ag39
ag39
ag40
ag39
ag39
ag39
ag39
ag40
ag39
ag40
ag40
ag39
ag40
ag40
ag40
ag39
aa(lp1385
g39
ag40
ag40
ag40
ag40
ag40
ag39
ag40
ag39
ag40
ag39
ag39
ag39
ag39
ag40
ag40
ag39
ag39
ag40
ag40
ag39
aa(lp1386
g39
ag39
ag40
ag39
ag40
ag39
ag39
ag40
ag40
ag40
ag40
ag39
ag39
ag39
ag40
ag40
ag40
ag40
ag40
ag39
ag39
aa(lp1387
g39
ag39
ag40
ag40
ag40
ag39
ag39
ag40
ag39
ag40
ag40
ag39
ag39
ag39
ag39
ag40
ag40
ag39
ag39
ag39
ag39
aa(lp1388
g40
ag39
ag39
ag40
ag40
ag40
ag39
ag39
ag39
ag40
ag40
ag39
ag40
ag39
ag39
ag40
ag39
ag39
ag40
ag39
ag39
aa(lp1389
g39
ag40
ag39
ag39
ag40
ag39
ag40
ag39
ag40
ag40
ag39
ag39
ag39
ag39
ag39
ag40
ag40
ag40
ag39
ag40
ag39
aa(lp1390
g40
ag39
ag40
ag39
ag40
ag40
ag39
ag40
ag39
ag39
ag40
ag39
ag40
ag39
ag40
ag40
ag39
ag40
ag39
ag39
ag39
aa(lp1391
g40
ag39
ag39
ag40
ag40
ag40
ag40
ag40
ag40
ag40
ag40
ag39
ag39
ag39
ag39
ag39
ag39
ag40
ag40
ag39
ag39
aa(lp1392
g39
ag40
ag39
ag40
ag40
ag39
ag39
ag39
ag40
ag39
ag40
ag39
ag40
ag39
ag40
ag39
ag40
ag39
ag40
ag39
ag39
aa(lp1393
g40
ag39
ag40
ag40
ag40
ag40
ag40
ag39
ag39
ag39
ag40
ag39
ag39
ag39
ag39
ag39
ag40
ag39
ag39
ag40
ag39
aa(lp1394
g40
ag39
ag39
ag40
ag40
ag39
ag39
ag40
ag40
ag40
ag40
ag39
ag39
ag39
ag40
ag39
ag40
ag39
ag39
ag39
ag39
aa(lp1395
g39
ag40
ag40
ag39
ag40
ag39
ag40
ag40
ag39
ag39
ag40
ag39
ag40
ag39
ag40
ag39
ag39
ag40
ag40
ag40
ag39
aa(lp1396
g40
ag40
ag40
ag40
ag40
ag40
ag39
ag40
ag39
ag39
ag40
ag39
ag40
ag39
ag40
ag40
ag39
ag40
ag40
ag39
ag39
aa(lp1397
g39
ag39
ag39
ag40
ag40
ag40
ag40
ag40
ag40
ag39
ag39
ag39
ag40
ag39
ag40
ag40
ag39
ag40
ag40
ag40
ag39
aa(lp1398
g39
ag39
ag39
ag40
ag40
ag39
ag40
ag40
ag40
ag40
ag39
ag39
ag39
ag39
ag39
ag40
ag39
ag39
ag39
ag39
ag39
aa(lp1399
g40
ag40
ag39
ag40
ag40
ag40
ag39
ag40
ag40
ag39
ag39
ag39
ag40
ag39
ag40
ag40
ag40
ag40
ag40
ag39
ag39
aa(lp1400
g40
ag40
ag39
ag39
ag40
ag39
ag40
ag40
ag39
ag40
ag39
ag39
ag39
ag39
ag40
ag40
ag40
ag40
ag40
ag40
ag39
aa(lp1401
g39
ag40
ag40
ag40
ag40
ag40
ag39
ag39
ag40
ag39
ag39
ag39
ag40
ag39
ag39
ag40
ag39
ag40
ag39
ag39
ag39
aa(lp1402
g39
ag39
ag39
ag39
ag40
ag40
ag40
ag40
ag39
ag39
ag39
ag39
ag40
ag39
ag39
ag39
ag40
ag39
ag39
ag39
ag39
aa(lp1403
g39
ag40
ag39
ag39
ag40
ag39
ag39
ag39
ag40
ag39
ag40
ag39
ag40
ag39
ag40
ag40
ag39
ag40
ag39
ag40
ag39
aa(lp1404
g39
ag39
ag39
ag40
ag40
ag40
ag40
ag40
ag39
ag39
ag40
ag39
ag40
ag39
ag39
ag40
ag39
ag40
ag40
ag40
ag39
aa(lp1405
g39
ag39
ag40
ag39
ag40
ag39
ag39
ag40
ag40
ag40
ag40
ag39
ag40
ag39
ag40
ag40
ag40
ag39
ag40
ag39
ag39
aa(lp1406
g39
ag39
ag39
ag40
ag40
ag39
ag39
ag39
ag39
ag39
ag40
ag39
ag39
ag39
ag39
ag39
ag39
ag39
ag39
ag39
ag39
aa(lp1407
g39
ag40
ag40
ag39
ag40
ag40
ag40
ag39
ag39
ag39
ag40
ag39
ag40
ag39
ag40
ag40
ag39
ag40
ag39
ag40
ag39
aa(lp1408
g39
ag39
ag40
ag39
ag40
ag39
ag40
ag40
ag40
ag40
ag40
ag39
ag40
ag39
ag39
ag40
ag39
ag40
ag39
ag39
ag39
aa(lp1409
g39
ag39
ag40
ag40
ag40
ag39
ag40
ag39
ag40
ag40
ag39
ag39
ag40
ag39
ag40
ag39
ag40
ag39
ag39
ag39
ag39
aa(lp1410
g40
ag39
ag39
ag39
ag40
ag39
ag39
ag40
ag40
ag40
ag39
ag39
ag39
ag39
ag40
ag39
ag39
ag40
ag39
ag40
ag39
aa(lp1411
g39
ag40
ag40
ag40
ag40
ag40
ag39
ag40
ag39
ag40
ag40
ag39
ag40
ag39
ag40
ag40
ag40
ag40
ag40
ag40
ag39
aa(lp1412
g39
ag40
ag39
ag39
ag40
ag40
ag40
ag39
ag40
ag40
ag40
ag39
ag39
ag39
ag39
ag40
ag40
ag40
ag39
ag39
ag39
aa(lp1413
g40
ag40
ag39
ag40
ag40
ag39
ag39
ag39
ag40
ag40
ag39
ag39
ag40
ag39
ag39
ag39
ag39
ag39
ag40
ag40
ag39
aa(lp1414
g39
ag40
ag39
ag39
ag40
ag39
ag39
ag39
ag40
ag40
ag39
ag39
ag39
ag39
ag39
ag39
ag40
ag39
ag39
ag40
ag39
aa(lp1415
g40
ag40
ag39
ag40
ag40
ag40
ag39
ag40
ag39
ag40
ag39
ag39
ag40
ag39
ag39
ag40
ag40
ag40
ag39
ag40
ag39
aa(lp1416
g40
ag39
ag39
ag40
ag40
ag39
ag40
ag39
ag39
ag39
ag40
ag39
ag40
ag39
ag39
ag39
ag39
ag40
ag40
ag39
ag39
aa(lp1417
g39
ag39
ag40
ag40
ag40
ag39
ag39
ag40
ag40
ag39
ag39
ag39
ag40
ag39
ag40
ag39
ag39
ag40
ag39
ag39
ag39
aa(lp1418
g39
ag40
ag39
ag39
ag40
ag39
ag39
ag39
ag40
ag40
ag39
ag39
ag40
ag39
ag40
ag39
ag39
ag39
ag39
ag40
ag39
aasg41
(lp1419
g1323
ag1348
ag1262
ag1307
ag1263
ag1356
ag1308
ag1271
ag1257
ag1264
ag1253
ag1254
ag1272
ag1304
ag1333
ag1309
ag1265
ag1273
ag1334
ag1274
ag1357
ag1358
ag1255
ag1275
ag1276
ag1359
ag1360
ag1277
ag1278
ag1279
ag1280
ag1335
ag1281
ag1336
ag1337
ag1302
ag1338
ag1361
ag1362
ag1266
ag1339
ag1324
ag1340
ag1349
ag1325
ag1282
ag1341
ag1327
ag1283
ag1284
ag1305
ag1285
ag1342
ag1363
ag1364
ag1343
ag1286
ag1310
ag1328
asg23
I0
sbsg36
(lp1420
g921
ag922
ag1217
ag1151
ag1197
ag1027
ag1057
ag1107
ag955
ag1186
ag940
ag910
ag956
ag1108
ag957
ag944
ag1005
ag1198
ag1033
ag958
ag1218
ag1139
ag923
ag1068
ag945
ag1109
ag1110
ag1111
ag1199
ag1140
ag1112
ag1141
ag1142
ag1069
ag1070
ag1113
ag1175
ag924
ag1061
ag1200
ag1219
ag1098
ag1201
ag925
ag1114
ag1003
ag1099
ag911
ag926
ag1115
ag959
ag1202
ag960
ag1220
ag915
ag1184
ag1100
ag903
ag1187
ag1071
ag900
ag1016
ag1017
ag1203
ag1116
ag1117
ag1062
ag927
ag1011
ag1118
ag1012
ag1119
ag961
ag928
ag1072
ag1006
ag1053
ag962
ag1091
ag1120
ag1221
ag1204
ag1222
ag1121
ag1018
ag946
ag1101
ag929
ag1223
ag1122
ag1123
ag963
ag930
ag1028
ag1224
ag1205
ag964
ag947
ag965
ag1001
ag1225
ag1177
ag904
ag1073
ag931
ag932
ag1226
ag1152
ag1188
ag1189
ag1146
ag1153
ag966
ag1102
ag1190
ag967
ag1143
ag1206
ag1207
ag1208
ag1124
ag1013
ag1209
ag1125
ag905
ag1210
ag1178
ag1227
ag948
ag968
ag1058
ag1228
ag969
ag933
ag1191
ag1093
ag1126
ag941
ag1029
ag934
ag912
ag1179
ag1229
ag1144
ag1007
ag942
ag1127
ag901
ag913
ag970
ag935
ag1074
ag1055
ag971
ag1211
ag1030
ag972
ag1128
ag1230
ag973
ag1008
ag1231
ag949
ag1031
ag1129
ag1075
ag1212
asg41
(lp1421
g1368
ag1369
ag1323
ag1370
ag1371
ag1372
ag1373
ag1374
ag1348
ag1262
ag1307
ag1375
ag1263
ag1376
ag1377
ag1378
ag1356
ag1308
ag1379
ag1271
ag1380
ag1257
ag1381
ag1264
ag1253
ag1254
ag1272
ag1382
ag1304
ag1383
ag1384
ag1385
ag1386
ag1387
ag1333
ag1309
ag1265
ag1273
ag1334
ag1388
ag1389
ag1274
ag1357
ag1358
ag1255
ag1390
ag1391
ag1392
ag1393
ag1394
ag1395
ag1396
ag1397
ag1398
ag1275
ag1276
ag1359
ag1399
ag1360
ag1400
ag1401
ag1402
ag1277
ag1278
ag1279
ag1280
ag1403
ag1404
ag1335
ag1281
ag1405
ag1336
ag1406
ag1337
ag1407
ag1302
ag1338
ag1361
ag1408
ag1362
ag1409
ag1410
ag1411
ag1412
ag1266
ag1413
ag1339
ag1324
ag1414
ag1340
ag1349
ag1325
ag1282
ag1341
ag1327
ag1283
ag1284
ag1305
ag1285
ag1342
ag1415
ag1363
ag1364
ag1343
ag1416
ag1286
ag1310
ag1417
ag1328
ag1418
asg23
I0
sbsg36
(lp1422
g390
ag258
ag690
ag73
ag503
ag238
ag617
ag757
ag758
ag397
ag559
ag855
ag691
ag205
ag90
ag206
ag164
ag570
ag845
ag355
ag356
ag43
ag64
ag742
ag469
ag571
ag267
ag543
ag430
ag65
ag357
ag268
ag753
ag846
ag681
ag560
ag692
ag512
ag808
ag513
ag661
ag313
ag693
ag130
ag91
ag694
ag470
ag695
ag463
ag572
ag696
ag358
ag507
ag561
ag252
ag514
ag618
ag697
ag471
ag314
ag414
ag797
ag540
ag74
ag179
ag682
ag809
ag515
ag500
ag158
ag38
ag466
ag698
ag472
ag743
ag683
ag847
ag211
ag165
ag166
ag175
ag415
ag423
ag573
ag340
ag667
ag699
ag56
ag759
ag183
ag841
ag516
ag834
ag754
ag517
ag760
ag359
ag417
ag341
ag269
ag270
ag239
ag700
ag651
ag431
ag810
ag92
ag467
ag668
ag518
ag701
ag121
ag88
ag803
ag306
ag66
ag848
ag271
ag609
ag432
ag108
ag836
ag119
ag464
ag67
ag398
ag733
ag212
ag625
ag388
ag347
ag669
ag734
ag519
ag433
ag788
ag315
ag520
ag684
ag555
ag670
ag256
ag424
ag360
ag57
ag610
ag418
ag184
ag761
ag662
ag702
ag619
ag159
ag75
ag122
ag333
ag685
ag434
ag789
ag798
ag419
ag307
ag399
ag762
ag123
ag626
ag272
ag93
ag361
ag362
ag185
ag744
ag273
ag737
ag316
ag363
ag207
ag763
ag167
ag764
ag856
ag765
ag342
ag857
ag703
ag858
ag804
ag766
ag671
ag253
ag131
ag491
ag364
ag186
ag274
ag317
ag842
ag767
ag209
ag562
ag501
ag521
ag233
ag768
ag574
ag849
ag386
ag850
ag859
ag365
ag94
ag557
ag769
ag860
ag522
ag861
ag575
ag811
ag435
ag523
ag420
ag770
ag187
ag524
ag366
ag672
ag259
ag176
ag673
ag704
ag805
ag862
ag367
ag790
ag812
ag647
ag705
ag620
ag851
ag706
ag674
ag576
ag863
ag318
ag304
ag368
ag707
ag275
ag132
ag59
ag792
ag745
ag319
ag708
ag276
ag110
ag746
ag111
ag655
ag213
ag747
ag489
ag735
ag813
ag686
ag675
ag864
ag277
ag308
ag95
ag748
ag612
ag76
ag473
ag676
ag156
ag806
ag709
ag44
ag525
ag254
ag68
ag133
ag69
ag852
ag577
ag278
ag541
ag391
ag771
ag369
ag177
ag474
ag865
ag320
ag710
ag755
ag436
ag188
ag335
ag677
ag260
ag348
ag279
ag652
ag437
ag711
ag261
ag526
ag231
ag370
ag438
ag712
ag421
ag627
ag687
ag527
ag578
ag492
ag843
ag579
ag262
ag649
asg41
(lp1423
g1368
ag921
ag1369
ag1323
ag1370
ag922
ag1217
ag1151
ag1197
ag1027
ag1057
ag1371
ag1372
ag1107
ag955
ag1186
ag940
ag910
ag1373
ag956
ag1108
ag1374
ag957
ag944
ag1348
ag1005
ag1262
ag1198
ag1307
ag1375
ag1033
ag958
ag1218
ag1139
ag1263
ag923
ag1068
ag945
ag1109
ag1376
ag1110
ag1377
ag1378
ag1111
ag1356
ag1199
ag1140
ag1112
ag1308
ag1141
ag1379
ag1271
ag1380
ag1257
ag1381
ag1142
ag1264
ag1069
ag1070
ag1113
ag1175
ag1253
ag1254
ag924
ag1061
ag1200
ag1219
ag1098
ag1201
ag1272
ag925
ag1382
ag1304
ag1114
ag1383
ag1003
ag1384
ag1099
ag1385
ag911
ag926
ag1115
ag1386
ag959
ag1202
ag1387
ag960
ag1333
ag1220
ag915
ag1184
ag1100
ag1309
ag903
ag1265
ag1187
ag1071
ag900
ag1016
ag1273
ag1017
ag1334
ag1203
ag1388
ag1389
ag1116
ag1274
ag1117
ag1357
ag1358
ag1255
ag1390
ag1062
ag927
ag1391
ag1392
ag1011
ag1118
ag1393
ag1012
ag1119
ag961
ag928
ag1072
ag1394
ag1006
ag1053
ag1395
ag1396
ag1397
ag1398
ag1275
ag962
ag1276
ag1359
ag1091
ag1120
ag1221
ag1399
ag1204
ag1360
ag1222
ag1121
ag1400
ag1018
ag946
ag1101
ag1401
ag1402
ag929
ag1277
ag1278
ag1223
ag1122
ag1279
ag1123
ag1280
ag963
ag930
ag1028
ag1224
ag1205
ag964
ag947
ag965
ag1001
ag1403
ag1225
ag1177
ag1404
ag904
ag1335
ag1073
ag931
ag932
ag1226
ag1152
ag1188
ag1281
ag1189
ag1146
ag1405
ag1153
ag1336
ag966
ag1102
ag1406
ag1190
ag1337
ag1407
ag1302
ag967
ag1338
ag1143
ag1361
ag1408
ag1206
ag1207
ag1208
ag1124
ag1362
ag1013
ag1409
ag1209
ag1410
ag1125
ag905
ag1411
ag1210
ag1178
ag1227
ag1412
ag1266
ag948
ag968
ag1413
ag1058
ag1339
ag1228
ag1324
ag969
ag933
ag1414
ag1191
ag1340
ag1349
ag1325
ag1093
ag1126
ag1282
ag1341
ag941
ag1029
ag934
ag912
ag1327
ag1179
ag1229
ag1144
ag1283
ag1007
ag942
ag1127
ag1284
ag901
ag1305
ag913
ag970
ag935
ag1285
ag1342
ag1415
ag1074
ag1055
ag971
ag1211
ag1030
ag972
ag1128
ag1363
ag1364
ag1230
ag973
ag1008
ag1231
ag949
ag1031
ag1343
ag1129
ag1416
ag1286
ag1310
ag1417
ag1328
ag1418
ag1075
ag1212
asg23
I1
sb.